
network.elf:     file format elf32-littlearm


Disassembly of section .text:

00008000 <_start>:
    8000:	e3a000d2 	mov	r0, #210	; 0xd2
    8004:	e121f000 	msr	CPSR_c, r0
    8008:	e3a0d902 	mov	sp, #32768	; 0x8000
    800c:	e3a000d3 	mov	r0, #211	; 0xd3
    8010:	e121f000 	msr	CPSR_c, r0
    8014:	e3a0da07 	mov	sp, #28672	; 0x7000
    8018:	eb000012 	bl	8068 <_cstart>

0000801c <GETR0>:
    801c:	e12fff1e 	bx	lr

00008020 <GETR3>:
    8020:	e1a00003 	mov	r0, r3
    8024:	e12fff1e 	bx	lr

00008028 <SAVEREG>:
    8028:	e5801004 	str	r1, [r0, #4]
    802c:	e5802008 	str	r2, [r0, #8]
    8030:	e5804010 	str	r4, [r0, #16]
    8034:	e5805014 	str	r5, [r0, #20]
    8038:	e5806018 	str	r6, [r0, #24]
    803c:	e580701c 	str	r7, [r0, #28]
    8040:	e5808020 	str	r8, [r0, #32]
    8044:	e5809024 	str	r9, [r0, #36]	; 0x24
    8048:	e580a028 	str	sl, [r0, #40]	; 0x28
    804c:	e580b02c 	str	fp, [r0, #44]	; 0x2c
    8050:	e580c030 	str	ip, [r0, #48]	; 0x30
    8054:	e580d034 	str	sp, [r0, #52]	; 0x34
    8058:	e580e038 	str	lr, [r0, #56]	; 0x38
    805c:	e580f03c 	str	pc, [r0, #60]	; 0x3c
    8060:	e12fff1e 	bx	lr

00008064 <hang>:
    8064:	eafffffe 	b	8064 <hang>

00008068 <_cstart>:
    8068:	e92d4800 	push	{fp, lr}
    806c:	e28db004 	add	fp, sp, #4
    8070:	e24dd018 	sub	sp, sp, #24
    8074:	e59f3094 	ldr	r3, [pc, #148]	; 8110 <_cstart+0xa8>
    8078:	e50b3008 	str	r3, [fp, #-8]
    807c:	e59f3090 	ldr	r3, [pc, #144]	; 8114 <_cstart+0xac>
    8080:	e50b3014 	str	r3, [fp, #-20]
    8084:	ea000004 	b	809c <_cstart+0x34>
    8088:	e51b3008 	ldr	r3, [fp, #-8]
    808c:	e2832004 	add	r2, r3, #4
    8090:	e50b2008 	str	r2, [fp, #-8]
    8094:	e3a02000 	mov	r2, #0
    8098:	e5832000 	str	r2, [r3]
    809c:	e51b2008 	ldr	r2, [fp, #-8]
    80a0:	e51b3014 	ldr	r3, [fp, #-20]
    80a4:	e1520003 	cmp	r2, r3
    80a8:	3afffff6 	bcc	8088 <_cstart+0x20>
    80ac:	e3a03000 	mov	r3, #0
    80b0:	e50b300c 	str	r3, [fp, #-12]
    80b4:	e59f305c 	ldr	r3, [pc, #92]	; 8118 <_cstart+0xb0>
    80b8:	e50b3010 	str	r3, [fp, #-16]
    80bc:	e59f3058 	ldr	r3, [pc, #88]	; 811c <_cstart+0xb4>
    80c0:	e50b3018 	str	r3, [fp, #-24]
    80c4:	ea000009 	b	80f0 <_cstart+0x88>
    80c8:	e51b3010 	ldr	r3, [fp, #-16]
    80cc:	e5932000 	ldr	r2, [r3]
    80d0:	e51b300c 	ldr	r3, [fp, #-12]
    80d4:	e5832000 	str	r2, [r3]
    80d8:	e51b300c 	ldr	r3, [fp, #-12]
    80dc:	e2833004 	add	r3, r3, #4
    80e0:	e50b300c 	str	r3, [fp, #-12]
    80e4:	e51b3010 	ldr	r3, [fp, #-16]
    80e8:	e2833004 	add	r3, r3, #4
    80ec:	e50b3010 	str	r3, [fp, #-16]
    80f0:	e51b2010 	ldr	r2, [fp, #-16]
    80f4:	e51b3018 	ldr	r3, [fp, #-24]
    80f8:	e1520003 	cmp	r2, r3
    80fc:	3afffff1 	bcc	80c8 <_cstart+0x60>
    8100:	eb000b87 	bl	af24 <notmain>
    8104:	e24bd004 	sub	sp, fp, #4
    8108:	e8bd4800 	pop	{fp, lr}
    810c:	e12fff1e 	bx	lr
    8110:	0000afb4 			; <UNDEFINED> instruction: 0x0000afb4
    8114:	0000afc0 	andeq	sl, r0, r0, asr #31
    8118:	0000a3e0 	andeq	sl, r0, r0, ror #7
    811c:	0000a430 	andeq	sl, r0, r0, lsr r4

00008120 <PUT32>:
    8120:	e5801000 	str	r1, [r0]
    8124:	e12fff1e 	bx	lr

00008128 <PUT16>:
    8128:	e1c010b0 	strh	r1, [r0]
    812c:	e12fff1e 	bx	lr

00008130 <PUT8>:
    8130:	e5c01000 	strb	r1, [r0]
    8134:	e12fff1e 	bx	lr

00008138 <GET32>:
    8138:	e5900000 	ldr	r0, [r0]
    813c:	e12fff1e 	bx	lr

00008140 <GETPC>:
    8140:	e1a0000e 	mov	r0, lr
    8144:	e12fff1e 	bx	lr

00008148 <dummy>:
    8148:	e12fff1e 	bx	lr

0000814c <led_init>:
    814c:	e92d4800 	push	{fp, lr}
    8150:	e28db004 	add	fp, sp, #4
    8154:	e24dd008 	sub	sp, sp, #8
    8158:	e59f3040 	ldr	r3, [pc, #64]	; 81a0 <led_init+0x54>
    815c:	e3a02000 	mov	r2, #0
    8160:	e5832000 	str	r2, [r3]
    8164:	e59f0038 	ldr	r0, [pc, #56]	; 81a4 <led_init+0x58>
    8168:	ebfffff2 	bl	8138 <GET32>
    816c:	e50b0008 	str	r0, [fp, #-8]
    8170:	e51b3008 	ldr	r3, [fp, #-8]
    8174:	e3c3360e 	bic	r3, r3, #14680064	; 0xe00000
    8178:	e50b3008 	str	r3, [fp, #-8]
    817c:	e51b3008 	ldr	r3, [fp, #-8]
    8180:	e3833602 	orr	r3, r3, #2097152	; 0x200000
    8184:	e50b3008 	str	r3, [fp, #-8]
    8188:	e59f0014 	ldr	r0, [pc, #20]	; 81a4 <led_init+0x58>
    818c:	e51b1008 	ldr	r1, [fp, #-8]
    8190:	ebffffe2 	bl	8120 <PUT32>
    8194:	e24bd004 	sub	sp, fp, #4
    8198:	e8bd4800 	pop	{fp, lr}
    819c:	e12fff1e 	bx	lr
    81a0:	0000afb4 			; <UNDEFINED> instruction: 0x0000afb4
    81a4:	20200010 	eorcs	r0, r0, r0, lsl r0

000081a8 <led_on>:
    81a8:	e92d4800 	push	{fp, lr}
    81ac:	e28db004 	add	fp, sp, #4
    81b0:	e59f301c 	ldr	r3, [pc, #28]	; 81d4 <led_on+0x2c>
    81b4:	e3a02001 	mov	r2, #1
    81b8:	e5832000 	str	r2, [r3]
    81bc:	e59f0014 	ldr	r0, [pc, #20]	; 81d8 <led_on+0x30>
    81c0:	e3a01902 	mov	r1, #32768	; 0x8000
    81c4:	ebffffd5 	bl	8120 <PUT32>
    81c8:	e24bd004 	sub	sp, fp, #4
    81cc:	e8bd4800 	pop	{fp, lr}
    81d0:	e12fff1e 	bx	lr
    81d4:	0000afb4 			; <UNDEFINED> instruction: 0x0000afb4
    81d8:	20200020 	eorcs	r0, r0, r0, lsr #32

000081dc <led_off>:
    81dc:	e92d4800 	push	{fp, lr}
    81e0:	e28db004 	add	fp, sp, #4
    81e4:	e59f301c 	ldr	r3, [pc, #28]	; 8208 <led_off+0x2c>
    81e8:	e3a02000 	mov	r2, #0
    81ec:	e5832000 	str	r2, [r3]
    81f0:	e59f0014 	ldr	r0, [pc, #20]	; 820c <led_off+0x30>
    81f4:	e3a01902 	mov	r1, #32768	; 0x8000
    81f8:	ebffffc8 	bl	8120 <PUT32>
    81fc:	e24bd004 	sub	sp, fp, #4
    8200:	e8bd4800 	pop	{fp, lr}
    8204:	e12fff1e 	bx	lr
    8208:	0000afb4 			; <UNDEFINED> instruction: 0x0000afb4
    820c:	2020002c 	eorcs	r0, r0, ip, lsr #32

00008210 <led_is_on>:
    8210:	e52db004 	push	{fp}		; (str fp, [sp, #-4]!)
    8214:	e28db000 	add	fp, sp, #0
    8218:	e59f3010 	ldr	r3, [pc, #16]	; 8230 <led_is_on+0x20>
    821c:	e5933000 	ldr	r3, [r3]
    8220:	e1a00003 	mov	r0, r3
    8224:	e24bd000 	sub	sp, fp, #0
    8228:	e49db004 	pop	{fp}		; (ldr fp, [sp], #4)
    822c:	e12fff1e 	bx	lr
    8230:	0000afb4 			; <UNDEFINED> instruction: 0x0000afb4

00008234 <led_toggle>:
    8234:	e92d4800 	push	{fp, lr}
    8238:	e28db004 	add	fp, sp, #4
    823c:	e59f302c 	ldr	r3, [pc, #44]	; 8270 <led_toggle+0x3c>
    8240:	e5933000 	ldr	r3, [r3]
    8244:	e3530000 	cmp	r3, #0
    8248:	0a000001 	beq	8254 <led_toggle+0x20>
    824c:	ebffffe2 	bl	81dc <led_off>
    8250:	ea000000 	b	8258 <led_toggle+0x24>
    8254:	ebffffd3 	bl	81a8 <led_on>
    8258:	e59f3010 	ldr	r3, [pc, #16]	; 8270 <led_toggle+0x3c>
    825c:	e5933000 	ldr	r3, [r3]
    8260:	e1a00003 	mov	r0, r3
    8264:	e24bd004 	sub	sp, fp, #4
    8268:	e8bd4800 	pop	{fp, lr}
    826c:	e12fff1e 	bx	lr
    8270:	0000afb4 			; <UNDEFINED> instruction: 0x0000afb4

00008274 <pinMode>:
    8274:	e52db004 	push	{fp}		; (str fp, [sp, #-4]!)
    8278:	e28db000 	add	fp, sp, #0
    827c:	e24dd01c 	sub	sp, sp, #28
    8280:	e50b0018 	str	r0, [fp, #-24]
    8284:	e50b101c 	str	r1, [fp, #-28]
    8288:	e51b3018 	ldr	r3, [fp, #-24]
    828c:	e59f20e4 	ldr	r2, [pc, #228]	; 8378 <pinMode+0x104>
    8290:	e0c21293 	smull	r1, r2, r3, r2
    8294:	e1a02142 	asr	r2, r2, #2
    8298:	e1a03fc3 	asr	r3, r3, #31
    829c:	e0633002 	rsb	r3, r3, r2
    82a0:	e50b3008 	str	r3, [fp, #-8]
    82a4:	e51b1018 	ldr	r1, [fp, #-24]
    82a8:	e59f30c8 	ldr	r3, [pc, #200]	; 8378 <pinMode+0x104>
    82ac:	e0c32391 	smull	r2, r3, r1, r3
    82b0:	e1a02143 	asr	r2, r3, #2
    82b4:	e1a03fc1 	asr	r3, r1, #31
    82b8:	e0632002 	rsb	r2, r3, r2
    82bc:	e1a03002 	mov	r3, r2
    82c0:	e1a03103 	lsl	r3, r3, #2
    82c4:	e0833002 	add	r3, r3, r2
    82c8:	e1a03083 	lsl	r3, r3, #1
    82cc:	e0632001 	rsb	r2, r3, r1
    82d0:	e1a03002 	mov	r3, r2
    82d4:	e1a03083 	lsl	r3, r3, #1
    82d8:	e0833002 	add	r3, r3, r2
    82dc:	e50b300c 	str	r3, [fp, #-12]
    82e0:	e59f3094 	ldr	r3, [pc, #148]	; 837c <pinMode+0x108>
    82e4:	e50b3010 	str	r3, [fp, #-16]
    82e8:	e51b301c 	ldr	r3, [fp, #-28]
    82ec:	e3530000 	cmp	r3, #0
    82f0:	1a00000f 	bne	8334 <pinMode+0xc0>
    82f4:	e51b3008 	ldr	r3, [fp, #-8]
    82f8:	e1a03103 	lsl	r3, r3, #2
    82fc:	e51b2010 	ldr	r2, [fp, #-16]
    8300:	e0823003 	add	r3, r2, r3
    8304:	e51b2008 	ldr	r2, [fp, #-8]
    8308:	e1a02102 	lsl	r2, r2, #2
    830c:	e51b1010 	ldr	r1, [fp, #-16]
    8310:	e0812002 	add	r2, r1, r2
    8314:	e5921000 	ldr	r1, [r2]
    8318:	e3a00001 	mov	r0, #1
    831c:	e51b200c 	ldr	r2, [fp, #-12]
    8320:	e1a02210 	lsl	r2, r0, r2
    8324:	e1e02002 	mvn	r2, r2
    8328:	e0012002 	and	r2, r1, r2
    832c:	e5832000 	str	r2, [r3]
    8330:	ea00000d 	b	836c <pinMode+0xf8>
    8334:	e51b3008 	ldr	r3, [fp, #-8]
    8338:	e1a03103 	lsl	r3, r3, #2
    833c:	e51b2010 	ldr	r2, [fp, #-16]
    8340:	e0823003 	add	r3, r2, r3
    8344:	e51b2008 	ldr	r2, [fp, #-8]
    8348:	e1a02102 	lsl	r2, r2, #2
    834c:	e51b1010 	ldr	r1, [fp, #-16]
    8350:	e0812002 	add	r2, r1, r2
    8354:	e5921000 	ldr	r1, [r2]
    8358:	e51b001c 	ldr	r0, [fp, #-28]
    835c:	e51b200c 	ldr	r2, [fp, #-12]
    8360:	e1a02210 	lsl	r2, r0, r2
    8364:	e1812002 	orr	r2, r1, r2
    8368:	e5832000 	str	r2, [r3]
    836c:	e24bd000 	sub	sp, fp, #0
    8370:	e49db004 	pop	{fp}		; (ldr fp, [sp], #4)
    8374:	e12fff1e 	bx	lr
    8378:	66666667 	strbtvs	r6, [r6], -r7, ror #12
    837c:	20200000 	eorcs	r0, r0, r0

00008380 <pinWrite>:
    8380:	e52db004 	push	{fp}		; (str fp, [sp, #-4]!)
    8384:	e28db000 	add	fp, sp, #0
    8388:	e24dd01c 	sub	sp, sp, #28
    838c:	e50b0018 	str	r0, [fp, #-24]
    8390:	e50b101c 	str	r1, [fp, #-28]
    8394:	e51b3018 	ldr	r3, [fp, #-24]
    8398:	e283201f 	add	r2, r3, #31
    839c:	e3530000 	cmp	r3, #0
    83a0:	b1a03002 	movlt	r3, r2
    83a4:	e1a032c3 	asr	r3, r3, #5
    83a8:	e50b3008 	str	r3, [fp, #-8]
    83ac:	e51b2018 	ldr	r2, [fp, #-24]
    83b0:	e1a03fc2 	asr	r3, r2, #31
    83b4:	e1a03da3 	lsr	r3, r3, #27
    83b8:	e0822003 	add	r2, r2, r3
    83bc:	e202201f 	and	r2, r2, #31
    83c0:	e0633002 	rsb	r3, r3, r2
    83c4:	e50b300c 	str	r3, [fp, #-12]
    83c8:	e59f3050 	ldr	r3, [pc, #80]	; 8420 <pinWrite+0xa0>
    83cc:	e50b3010 	str	r3, [fp, #-16]
    83d0:	e51b3008 	ldr	r3, [fp, #-8]
    83d4:	e2831007 	add	r1, r3, #7
    83d8:	e51b301c 	ldr	r3, [fp, #-28]
    83dc:	e2632001 	rsb	r2, r3, #1
    83e0:	e1a03002 	mov	r3, r2
    83e4:	e1a03083 	lsl	r3, r3, #1
    83e8:	e0833002 	add	r3, r3, r2
    83ec:	e0813003 	add	r3, r1, r3
    83f0:	e50b3014 	str	r3, [fp, #-20]
    83f4:	e51b3014 	ldr	r3, [fp, #-20]
    83f8:	e1a03103 	lsl	r3, r3, #2
    83fc:	e51b2010 	ldr	r2, [fp, #-16]
    8400:	e0823003 	add	r3, r2, r3
    8404:	e3a01001 	mov	r1, #1
    8408:	e51b200c 	ldr	r2, [fp, #-12]
    840c:	e1a02211 	lsl	r2, r1, r2
    8410:	e5832000 	str	r2, [r3]
    8414:	e24bd000 	sub	sp, fp, #0
    8418:	e49db004 	pop	{fp}		; (ldr fp, [sp], #4)
    841c:	e12fff1e 	bx	lr
    8420:	20200000 	eorcs	r0, r0, r0

00008424 <gpio_pin_to_function_register>:
    8424:	e52db004 	push	{fp}		; (str fp, [sp, #-4]!)
    8428:	e28db000 	add	fp, sp, #0
    842c:	e24dd014 	sub	sp, sp, #20
    8430:	e50b0010 	str	r0, [fp, #-16]
    8434:	e51b2010 	ldr	r2, [fp, #-16]
    8438:	e59f3074 	ldr	r3, [pc, #116]	; 84b4 <gpio_pin_to_function_register+0x90>
    843c:	e0831392 	umull	r1, r3, r2, r3
    8440:	e1a031a3 	lsr	r3, r3, #3
    8444:	e50b3008 	str	r3, [fp, #-8]
    8448:	e51b3008 	ldr	r3, [fp, #-8]
    844c:	e3530005 	cmp	r3, #5
    8450:	979ff103 	ldrls	pc, [pc, r3, lsl #2]
    8454:	ea000011 	b	84a0 <gpio_pin_to_function_register+0x7c>
    8458:	00008470 	andeq	r8, r0, r0, ror r4
    845c:	00008478 	andeq	r8, r0, r8, ror r4
    8460:	00008480 	andeq	r8, r0, r0, lsl #9
    8464:	00008488 	andeq	r8, r0, r8, lsl #9
    8468:	00008490 	muleq	r0, r0, r4
    846c:	00008498 	muleq	r0, r8, r4
    8470:	e59f3040 	ldr	r3, [pc, #64]	; 84b8 <gpio_pin_to_function_register+0x94>
    8474:	ea00000a 	b	84a4 <gpio_pin_to_function_register+0x80>
    8478:	e59f303c 	ldr	r3, [pc, #60]	; 84bc <gpio_pin_to_function_register+0x98>
    847c:	ea000008 	b	84a4 <gpio_pin_to_function_register+0x80>
    8480:	e59f3038 	ldr	r3, [pc, #56]	; 84c0 <gpio_pin_to_function_register+0x9c>
    8484:	ea000006 	b	84a4 <gpio_pin_to_function_register+0x80>
    8488:	e59f3034 	ldr	r3, [pc, #52]	; 84c4 <gpio_pin_to_function_register+0xa0>
    848c:	ea000004 	b	84a4 <gpio_pin_to_function_register+0x80>
    8490:	e59f3030 	ldr	r3, [pc, #48]	; 84c8 <gpio_pin_to_function_register+0xa4>
    8494:	ea000002 	b	84a4 <gpio_pin_to_function_register+0x80>
    8498:	e59f302c 	ldr	r3, [pc, #44]	; 84cc <gpio_pin_to_function_register+0xa8>
    849c:	ea000000 	b	84a4 <gpio_pin_to_function_register+0x80>
    84a0:	e3a03000 	mov	r3, #0
    84a4:	e1a00003 	mov	r0, r3
    84a8:	e24bd000 	sub	sp, fp, #0
    84ac:	e49db004 	pop	{fp}		; (ldr fp, [sp], #4)
    84b0:	e12fff1e 	bx	lr
    84b4:	cccccccd 	stclgt	12, cr12, [ip], {205}	; 0xcd
    84b8:	20200000 	eorcs	r0, r0, r0
    84bc:	20200004 	eorcs	r0, r0, r4
    84c0:	20200008 	eorcs	r0, r0, r8
    84c4:	2020000c 	eorcs	r0, r0, ip
    84c8:	20200010 	eorcs	r0, r0, r0, lsl r0
    84cc:	20200014 	eorcs	r0, r0, r4, lsl r0

000084d0 <gpio_pin_to_function_offset>:
    84d0:	e52db004 	push	{fp}		; (str fp, [sp, #-4]!)
    84d4:	e28db000 	add	fp, sp, #0
    84d8:	e24dd014 	sub	sp, sp, #20
    84dc:	e50b0010 	str	r0, [fp, #-16]
    84e0:	e51b1010 	ldr	r1, [fp, #-16]
    84e4:	e59f303c 	ldr	r3, [pc, #60]	; 8528 <gpio_pin_to_function_offset+0x58>
    84e8:	e0832391 	umull	r2, r3, r1, r3
    84ec:	e1a021a3 	lsr	r2, r3, #3
    84f0:	e1a03002 	mov	r3, r2
    84f4:	e1a03103 	lsl	r3, r3, #2
    84f8:	e0833002 	add	r3, r3, r2
    84fc:	e1a03083 	lsl	r3, r3, #1
    8500:	e0632001 	rsb	r2, r3, r1
    8504:	e1a03002 	mov	r3, r2
    8508:	e1a03083 	lsl	r3, r3, #1
    850c:	e0833002 	add	r3, r3, r2
    8510:	e50b3008 	str	r3, [fp, #-8]
    8514:	e51b3008 	ldr	r3, [fp, #-8]
    8518:	e1a00003 	mov	r0, r3
    851c:	e24bd000 	sub	sp, fp, #0
    8520:	e49db004 	pop	{fp}		; (ldr fp, [sp], #4)
    8524:	e12fff1e 	bx	lr
    8528:	cccccccd 	stclgt	12, cr12, [ip], {205}	; 0xcd

0000852c <gpio_pin_to_input_register>:
    852c:	e52db004 	push	{fp}		; (str fp, [sp, #-4]!)
    8530:	e28db000 	add	fp, sp, #0
    8534:	e24dd00c 	sub	sp, sp, #12
    8538:	e50b0008 	str	r0, [fp, #-8]
    853c:	e51b3008 	ldr	r3, [fp, #-8]
    8540:	e353001f 	cmp	r3, #31
    8544:	8a000001 	bhi	8550 <gpio_pin_to_input_register+0x24>
    8548:	e59f3014 	ldr	r3, [pc, #20]	; 8564 <gpio_pin_to_input_register+0x38>
    854c:	ea000000 	b	8554 <gpio_pin_to_input_register+0x28>
    8550:	e59f3010 	ldr	r3, [pc, #16]	; 8568 <gpio_pin_to_input_register+0x3c>
    8554:	e1a00003 	mov	r0, r3
    8558:	e24bd000 	sub	sp, fp, #0
    855c:	e49db004 	pop	{fp}		; (ldr fp, [sp], #4)
    8560:	e12fff1e 	bx	lr
    8564:	20200034 	eorcs	r0, r0, r4, lsr r0
    8568:	20200038 	eorcs	r0, r0, r8, lsr r0

0000856c <gpio_pin_to_bit_offset>:
    856c:	e52db004 	push	{fp}		; (str fp, [sp, #-4]!)
    8570:	e28db000 	add	fp, sp, #0
    8574:	e24dd00c 	sub	sp, sp, #12
    8578:	e50b0008 	str	r0, [fp, #-8]
    857c:	e51b2008 	ldr	r2, [fp, #-8]
    8580:	e1a03fc2 	asr	r3, r2, #31
    8584:	e1a03da3 	lsr	r3, r3, #27
    8588:	e0822003 	add	r2, r2, r3
    858c:	e202201f 	and	r2, r2, #31
    8590:	e0633002 	rsb	r3, r3, r2
    8594:	e1a00003 	mov	r0, r3
    8598:	e24bd000 	sub	sp, fp, #0
    859c:	e49db004 	pop	{fp}		; (ldr fp, [sp], #4)
    85a0:	e12fff1e 	bx	lr

000085a4 <gpio_pin_to_input_offset>:
    85a4:	e92d4800 	push	{fp, lr}
    85a8:	e28db004 	add	fp, sp, #4
    85ac:	e24dd008 	sub	sp, sp, #8
    85b0:	e50b0008 	str	r0, [fp, #-8]
    85b4:	e51b0008 	ldr	r0, [fp, #-8]
    85b8:	ebffffeb 	bl	856c <gpio_pin_to_bit_offset>
    85bc:	e1a03000 	mov	r3, r0
    85c0:	e1a00003 	mov	r0, r3
    85c4:	e24bd004 	sub	sp, fp, #4
    85c8:	e8bd4800 	pop	{fp, lr}
    85cc:	e12fff1e 	bx	lr

000085d0 <gpio_pin_to_set_register>:
    85d0:	e52db004 	push	{fp}		; (str fp, [sp, #-4]!)
    85d4:	e28db000 	add	fp, sp, #0
    85d8:	e24dd00c 	sub	sp, sp, #12
    85dc:	e50b0008 	str	r0, [fp, #-8]
    85e0:	e51b3008 	ldr	r3, [fp, #-8]
    85e4:	e353001f 	cmp	r3, #31
    85e8:	8a000001 	bhi	85f4 <gpio_pin_to_set_register+0x24>
    85ec:	e59f3014 	ldr	r3, [pc, #20]	; 8608 <gpio_pin_to_set_register+0x38>
    85f0:	ea000000 	b	85f8 <gpio_pin_to_set_register+0x28>
    85f4:	e59f3010 	ldr	r3, [pc, #16]	; 860c <gpio_pin_to_set_register+0x3c>
    85f8:	e1a00003 	mov	r0, r3
    85fc:	e24bd000 	sub	sp, fp, #0
    8600:	e49db004 	pop	{fp}		; (ldr fp, [sp], #4)
    8604:	e12fff1e 	bx	lr
    8608:	2020001c 	eorcs	r0, r0, ip, lsl r0
    860c:	20200020 	eorcs	r0, r0, r0, lsr #32

00008610 <gpio_pin_to_set_offset>:
    8610:	e92d4800 	push	{fp, lr}
    8614:	e28db004 	add	fp, sp, #4
    8618:	e24dd008 	sub	sp, sp, #8
    861c:	e50b0008 	str	r0, [fp, #-8]
    8620:	e51b0008 	ldr	r0, [fp, #-8]
    8624:	ebffffd0 	bl	856c <gpio_pin_to_bit_offset>
    8628:	e1a03000 	mov	r3, r0
    862c:	e1a00003 	mov	r0, r3
    8630:	e24bd004 	sub	sp, fp, #4
    8634:	e8bd4800 	pop	{fp, lr}
    8638:	e12fff1e 	bx	lr

0000863c <gpio_pin_to_clear_register>:
    863c:	e52db004 	push	{fp}		; (str fp, [sp, #-4]!)
    8640:	e28db000 	add	fp, sp, #0
    8644:	e24dd00c 	sub	sp, sp, #12
    8648:	e50b0008 	str	r0, [fp, #-8]
    864c:	e51b3008 	ldr	r3, [fp, #-8]
    8650:	e353001f 	cmp	r3, #31
    8654:	8a000001 	bhi	8660 <gpio_pin_to_clear_register+0x24>
    8658:	e59f3014 	ldr	r3, [pc, #20]	; 8674 <gpio_pin_to_clear_register+0x38>
    865c:	ea000000 	b	8664 <gpio_pin_to_clear_register+0x28>
    8660:	e59f3010 	ldr	r3, [pc, #16]	; 8678 <gpio_pin_to_clear_register+0x3c>
    8664:	e1a00003 	mov	r0, r3
    8668:	e24bd000 	sub	sp, fp, #0
    866c:	e49db004 	pop	{fp}		; (ldr fp, [sp], #4)
    8670:	e12fff1e 	bx	lr
    8674:	20200028 	eorcs	r0, r0, r8, lsr #32
    8678:	2020002c 	eorcs	r0, r0, ip, lsr #32

0000867c <gpio_pin_to_clear_offset>:
    867c:	e92d4800 	push	{fp, lr}
    8680:	e28db004 	add	fp, sp, #4
    8684:	e24dd008 	sub	sp, sp, #8
    8688:	e50b0008 	str	r0, [fp, #-8]
    868c:	e51b0008 	ldr	r0, [fp, #-8]
    8690:	ebffffb5 	bl	856c <gpio_pin_to_bit_offset>
    8694:	e1a03000 	mov	r3, r0
    8698:	e1a00003 	mov	r0, r3
    869c:	e24bd004 	sub	sp, fp, #4
    86a0:	e8bd4800 	pop	{fp, lr}
    86a4:	e12fff1e 	bx	lr

000086a8 <gpio_pin_to_event_register>:
    86a8:	e52db004 	push	{fp}		; (str fp, [sp, #-4]!)
    86ac:	e28db000 	add	fp, sp, #0
    86b0:	e24dd00c 	sub	sp, sp, #12
    86b4:	e50b0008 	str	r0, [fp, #-8]
    86b8:	e51b3008 	ldr	r3, [fp, #-8]
    86bc:	e353001f 	cmp	r3, #31
    86c0:	8a000001 	bhi	86cc <gpio_pin_to_event_register+0x24>
    86c4:	e59f3014 	ldr	r3, [pc, #20]	; 86e0 <gpio_pin_to_event_register+0x38>
    86c8:	ea000000 	b	86d0 <gpio_pin_to_event_register+0x28>
    86cc:	e59f3010 	ldr	r3, [pc, #16]	; 86e4 <gpio_pin_to_event_register+0x3c>
    86d0:	e1a00003 	mov	r0, r3
    86d4:	e24bd000 	sub	sp, fp, #0
    86d8:	e49db004 	pop	{fp}		; (ldr fp, [sp], #4)
    86dc:	e12fff1e 	bx	lr
    86e0:	20200040 	eorcs	r0, r0, r0, asr #32
    86e4:	20200044 	eorcs	r0, r0, r4, asr #32

000086e8 <gpio_pin_to_event_offset>:
    86e8:	e92d4800 	push	{fp, lr}
    86ec:	e28db004 	add	fp, sp, #4
    86f0:	e24dd008 	sub	sp, sp, #8
    86f4:	e50b0008 	str	r0, [fp, #-8]
    86f8:	e51b0008 	ldr	r0, [fp, #-8]
    86fc:	ebffff9a 	bl	856c <gpio_pin_to_bit_offset>
    8700:	e1a03000 	mov	r3, r0
    8704:	e1a00003 	mov	r0, r3
    8708:	e24bd004 	sub	sp, fp, #4
    870c:	e8bd4800 	pop	{fp, lr}
    8710:	e12fff1e 	bx	lr

00008714 <gpio_pin_to_falling_register>:
    8714:	e52db004 	push	{fp}		; (str fp, [sp, #-4]!)
    8718:	e28db000 	add	fp, sp, #0
    871c:	e24dd00c 	sub	sp, sp, #12
    8720:	e50b0008 	str	r0, [fp, #-8]
    8724:	e51b3008 	ldr	r3, [fp, #-8]
    8728:	e353001f 	cmp	r3, #31
    872c:	8a000001 	bhi	8738 <gpio_pin_to_falling_register+0x24>
    8730:	e59f3014 	ldr	r3, [pc, #20]	; 874c <gpio_pin_to_falling_register+0x38>
    8734:	ea000000 	b	873c <gpio_pin_to_falling_register+0x28>
    8738:	e59f3010 	ldr	r3, [pc, #16]	; 8750 <gpio_pin_to_falling_register+0x3c>
    873c:	e1a00003 	mov	r0, r3
    8740:	e24bd000 	sub	sp, fp, #0
    8744:	e49db004 	pop	{fp}		; (ldr fp, [sp], #4)
    8748:	e12fff1e 	bx	lr
    874c:	20200058 	eorcs	r0, r0, r8, asr r0
    8750:	2020005c 	eorcs	r0, r0, ip, asr r0

00008754 <gpio_pin_to_falling_offset>:
    8754:	e92d4800 	push	{fp, lr}
    8758:	e28db004 	add	fp, sp, #4
    875c:	e24dd008 	sub	sp, sp, #8
    8760:	e50b0008 	str	r0, [fp, #-8]
    8764:	e51b0008 	ldr	r0, [fp, #-8]
    8768:	ebffff7f 	bl	856c <gpio_pin_to_bit_offset>
    876c:	e1a03000 	mov	r3, r0
    8770:	e1a00003 	mov	r0, r3
    8774:	e24bd004 	sub	sp, fp, #4
    8778:	e8bd4800 	pop	{fp, lr}
    877c:	e12fff1e 	bx	lr

00008780 <gpio_pin_to_rising_register>:
    8780:	e52db004 	push	{fp}		; (str fp, [sp, #-4]!)
    8784:	e28db000 	add	fp, sp, #0
    8788:	e24dd00c 	sub	sp, sp, #12
    878c:	e50b0008 	str	r0, [fp, #-8]
    8790:	e51b3008 	ldr	r3, [fp, #-8]
    8794:	e353001f 	cmp	r3, #31
    8798:	8a000001 	bhi	87a4 <gpio_pin_to_rising_register+0x24>
    879c:	e59f3014 	ldr	r3, [pc, #20]	; 87b8 <gpio_pin_to_rising_register+0x38>
    87a0:	ea000000 	b	87a8 <gpio_pin_to_rising_register+0x28>
    87a4:	e59f3010 	ldr	r3, [pc, #16]	; 87bc <gpio_pin_to_rising_register+0x3c>
    87a8:	e1a00003 	mov	r0, r3
    87ac:	e24bd000 	sub	sp, fp, #0
    87b0:	e49db004 	pop	{fp}		; (ldr fp, [sp], #4)
    87b4:	e12fff1e 	bx	lr
    87b8:	2020004c 	eorcs	r0, r0, ip, asr #32
    87bc:	20200050 	eorcs	r0, r0, r0, asr r0

000087c0 <gpio_pin_to_rising_offset>:
    87c0:	e92d4800 	push	{fp, lr}
    87c4:	e28db004 	add	fp, sp, #4
    87c8:	e24dd008 	sub	sp, sp, #8
    87cc:	e50b0008 	str	r0, [fp, #-8]
    87d0:	e51b0008 	ldr	r0, [fp, #-8]
    87d4:	ebffff64 	bl	856c <gpio_pin_to_bit_offset>
    87d8:	e1a03000 	mov	r3, r0
    87dc:	e1a00003 	mov	r0, r3
    87e0:	e24bd004 	sub	sp, fp, #4
    87e4:	e8bd4800 	pop	{fp, lr}
    87e8:	e12fff1e 	bx	lr

000087ec <gpio_init>:
    87ec:	e92d4800 	push	{fp, lr}
    87f0:	e28db004 	add	fp, sp, #4
    87f4:	eb0001a8 	bl	8e9c <timer_init>
    87f8:	e24bd004 	sub	sp, fp, #4
    87fc:	e8bd4800 	pop	{fp, lr}
    8800:	e12fff1e 	bx	lr

00008804 <gpio_pin_valid>:
    8804:	e52db004 	push	{fp}		; (str fp, [sp, #-4]!)
    8808:	e28db000 	add	fp, sp, #0
    880c:	e24dd00c 	sub	sp, sp, #12
    8810:	e50b0008 	str	r0, [fp, #-8]
    8814:	e51b3008 	ldr	r3, [fp, #-8]
    8818:	e3530036 	cmp	r3, #54	; 0x36
    881c:	83a03000 	movhi	r3, #0
    8820:	93a03001 	movls	r3, #1
    8824:	e20330ff 	and	r3, r3, #255	; 0xff
    8828:	e1a00003 	mov	r0, r3
    882c:	e24bd000 	sub	sp, fp, #0
    8830:	e49db004 	pop	{fp}		; (ldr fp, [sp], #4)
    8834:	e12fff1e 	bx	lr

00008838 <gpio_function_valid>:
    8838:	e52db004 	push	{fp}		; (str fp, [sp, #-4]!)
    883c:	e28db000 	add	fp, sp, #0
    8840:	e24dd00c 	sub	sp, sp, #12
    8844:	e50b0008 	str	r0, [fp, #-8]
    8848:	e51b3008 	ldr	r3, [fp, #-8]
    884c:	e3530007 	cmp	r3, #7
    8850:	83a03000 	movhi	r3, #0
    8854:	93a03001 	movls	r3, #1
    8858:	e20330ff 	and	r3, r3, #255	; 0xff
    885c:	e1a00003 	mov	r0, r3
    8860:	e24bd000 	sub	sp, fp, #0
    8864:	e49db004 	pop	{fp}		; (ldr fp, [sp], #4)
    8868:	e12fff1e 	bx	lr

0000886c <gpio_is_input>:
    886c:	e92d4800 	push	{fp, lr}
    8870:	e28db004 	add	fp, sp, #4
    8874:	e24dd008 	sub	sp, sp, #8
    8878:	e50b0008 	str	r0, [fp, #-8]
    887c:	e51b0008 	ldr	r0, [fp, #-8]
    8880:	eb000017 	bl	88e4 <gpio_get_function>
    8884:	e1a03000 	mov	r3, r0
    8888:	e3530000 	cmp	r3, #0
    888c:	13a03000 	movne	r3, #0
    8890:	03a03001 	moveq	r3, #1
    8894:	e20330ff 	and	r3, r3, #255	; 0xff
    8898:	e1a00003 	mov	r0, r3
    889c:	e24bd004 	sub	sp, fp, #4
    88a0:	e8bd4800 	pop	{fp, lr}
    88a4:	e12fff1e 	bx	lr

000088a8 <gpio_is_output>:
    88a8:	e92d4800 	push	{fp, lr}
    88ac:	e28db004 	add	fp, sp, #4
    88b0:	e24dd008 	sub	sp, sp, #8
    88b4:	e50b0008 	str	r0, [fp, #-8]
    88b8:	e51b0008 	ldr	r0, [fp, #-8]
    88bc:	eb000008 	bl	88e4 <gpio_get_function>
    88c0:	e1a03000 	mov	r3, r0
    88c4:	e3530001 	cmp	r3, #1
    88c8:	13a03000 	movne	r3, #0
    88cc:	03a03001 	moveq	r3, #1
    88d0:	e20330ff 	and	r3, r3, #255	; 0xff
    88d4:	e1a00003 	mov	r0, r3
    88d8:	e24bd004 	sub	sp, fp, #4
    88dc:	e8bd4800 	pop	{fp, lr}
    88e0:	e12fff1e 	bx	lr

000088e4 <gpio_get_function>:
    88e4:	e92d4800 	push	{fp, lr}
    88e8:	e28db004 	add	fp, sp, #4
    88ec:	e24dd010 	sub	sp, sp, #16
    88f0:	e50b0010 	str	r0, [fp, #-16]
    88f4:	e51b0010 	ldr	r0, [fp, #-16]
    88f8:	ebffffc1 	bl	8804 <gpio_pin_valid>
    88fc:	e1a03000 	mov	r3, r0
    8900:	e3530000 	cmp	r3, #0
    8904:	1a000001 	bne	8910 <gpio_get_function+0x2c>
    8908:	e3a03008 	mov	r3, #8
    890c:	ea000010 	b	8954 <gpio_get_function+0x70>
    8910:	eb00020a 	bl	9140 <system_memory_read_barrier>
    8914:	e51b0010 	ldr	r0, [fp, #-16]
    8918:	ebfffec1 	bl	8424 <gpio_pin_to_function_register>
    891c:	e50b0008 	str	r0, [fp, #-8]
    8920:	e51b0008 	ldr	r0, [fp, #-8]
    8924:	ebfffe03 	bl	8138 <GET32>
    8928:	e50b000c 	str	r0, [fp, #-12]
    892c:	e51b0010 	ldr	r0, [fp, #-16]
    8930:	ebfffee6 	bl	84d0 <gpio_pin_to_function_offset>
    8934:	e1a03000 	mov	r3, r0
    8938:	e51b200c 	ldr	r2, [fp, #-12]
    893c:	e1a03332 	lsr	r3, r2, r3
    8940:	e50b300c 	str	r3, [fp, #-12]
    8944:	e51b300c 	ldr	r3, [fp, #-12]
    8948:	e2033007 	and	r3, r3, #7
    894c:	e50b300c 	str	r3, [fp, #-12]
    8950:	e51b300c 	ldr	r3, [fp, #-12]
    8954:	e1a00003 	mov	r0, r3
    8958:	e24bd004 	sub	sp, fp, #4
    895c:	e8bd4800 	pop	{fp, lr}
    8960:	e12fff1e 	bx	lr

00008964 <gpio_set_input>:
    8964:	e92d4800 	push	{fp, lr}
    8968:	e28db004 	add	fp, sp, #4
    896c:	e24dd008 	sub	sp, sp, #8
    8970:	e50b0008 	str	r0, [fp, #-8]
    8974:	e51b0008 	ldr	r0, [fp, #-8]
    8978:	e3a01000 	mov	r1, #0
    897c:	eb000010 	bl	89c4 <gpio_set_function>
    8980:	e1a03000 	mov	r3, r0
    8984:	e1a00003 	mov	r0, r3
    8988:	e24bd004 	sub	sp, fp, #4
    898c:	e8bd4800 	pop	{fp, lr}
    8990:	e12fff1e 	bx	lr

00008994 <gpio_set_output>:
    8994:	e92d4800 	push	{fp, lr}
    8998:	e28db004 	add	fp, sp, #4
    899c:	e24dd008 	sub	sp, sp, #8
    89a0:	e50b0008 	str	r0, [fp, #-8]
    89a4:	e51b0008 	ldr	r0, [fp, #-8]
    89a8:	e3a01001 	mov	r1, #1
    89ac:	eb000004 	bl	89c4 <gpio_set_function>
    89b0:	e1a03000 	mov	r3, r0
    89b4:	e1a00003 	mov	r0, r3
    89b8:	e24bd004 	sub	sp, fp, #4
    89bc:	e8bd4800 	pop	{fp, lr}
    89c0:	e12fff1e 	bx	lr

000089c4 <gpio_set_function>:
    89c4:	e92d4800 	push	{fp, lr}
    89c8:	e28db004 	add	fp, sp, #4
    89cc:	e24dd018 	sub	sp, sp, #24
    89d0:	e50b0018 	str	r0, [fp, #-24]
    89d4:	e50b101c 	str	r1, [fp, #-28]
    89d8:	e51b0018 	ldr	r0, [fp, #-24]
    89dc:	ebffff88 	bl	8804 <gpio_pin_valid>
    89e0:	e1a03000 	mov	r3, r0
    89e4:	e3530000 	cmp	r3, #0
    89e8:	1a000001 	bne	89f4 <gpio_set_function+0x30>
    89ec:	e3a03008 	mov	r3, #8
    89f0:	ea000024 	b	8a88 <gpio_set_function+0xc4>
    89f4:	e51b001c 	ldr	r0, [fp, #-28]
    89f8:	ebffff8e 	bl	8838 <gpio_function_valid>
    89fc:	e1a03000 	mov	r3, r0
    8a00:	e3530000 	cmp	r3, #0
    8a04:	1a000001 	bne	8a10 <gpio_set_function+0x4c>
    8a08:	e3a03008 	mov	r3, #8
    8a0c:	ea00001d 	b	8a88 <gpio_set_function+0xc4>
    8a10:	eb0001ca 	bl	9140 <system_memory_read_barrier>
    8a14:	e51b0018 	ldr	r0, [fp, #-24]
    8a18:	ebfffe81 	bl	8424 <gpio_pin_to_function_register>
    8a1c:	e50b0008 	str	r0, [fp, #-8]
    8a20:	e51b0018 	ldr	r0, [fp, #-24]
    8a24:	ebfffea9 	bl	84d0 <gpio_pin_to_function_offset>
    8a28:	e50b000c 	str	r0, [fp, #-12]
    8a2c:	e51b0008 	ldr	r0, [fp, #-8]
    8a30:	ebfffdc0 	bl	8138 <GET32>
    8a34:	e50b0010 	str	r0, [fp, #-16]
    8a38:	e51b300c 	ldr	r3, [fp, #-12]
    8a3c:	e3a02007 	mov	r2, #7
    8a40:	e1a03312 	lsl	r3, r2, r3
    8a44:	e1e03003 	mvn	r3, r3
    8a48:	e50b3014 	str	r3, [fp, #-20]
    8a4c:	e51b2010 	ldr	r2, [fp, #-16]
    8a50:	e51b3014 	ldr	r3, [fp, #-20]
    8a54:	e0023003 	and	r3, r2, r3
    8a58:	e50b3010 	str	r3, [fp, #-16]
    8a5c:	e51b300c 	ldr	r3, [fp, #-12]
    8a60:	e51b201c 	ldr	r2, [fp, #-28]
    8a64:	e1a03312 	lsl	r3, r2, r3
    8a68:	e51b2010 	ldr	r2, [fp, #-16]
    8a6c:	e1823003 	orr	r3, r2, r3
    8a70:	e50b3010 	str	r3, [fp, #-16]
    8a74:	e51b0008 	ldr	r0, [fp, #-8]
    8a78:	e51b1010 	ldr	r1, [fp, #-16]
    8a7c:	ebfffda7 	bl	8120 <PUT32>
    8a80:	eb0001b5 	bl	915c <system_memory_write_barrier>
    8a84:	e51b301c 	ldr	r3, [fp, #-28]
    8a88:	e1a00003 	mov	r0, r3
    8a8c:	e24bd004 	sub	sp, fp, #4
    8a90:	e8bd4800 	pop	{fp, lr}
    8a94:	e12fff1e 	bx	lr

00008a98 <gpio_pin_read>:
    8a98:	e92d4800 	push	{fp, lr}
    8a9c:	e28db004 	add	fp, sp, #4
    8aa0:	e24dd010 	sub	sp, sp, #16
    8aa4:	e50b0010 	str	r0, [fp, #-16]
    8aa8:	e51b0010 	ldr	r0, [fp, #-16]
    8aac:	ebfffe9e 	bl	852c <gpio_pin_to_input_register>
    8ab0:	e50b0008 	str	r0, [fp, #-8]
    8ab4:	eb0001a1 	bl	9140 <system_memory_read_barrier>
    8ab8:	e51b0008 	ldr	r0, [fp, #-8]
    8abc:	ebfffd9d 	bl	8138 <GET32>
    8ac0:	e50b000c 	str	r0, [fp, #-12]
    8ac4:	e51b0010 	ldr	r0, [fp, #-16]
    8ac8:	ebfffeb5 	bl	85a4 <gpio_pin_to_input_offset>
    8acc:	e1a03000 	mov	r3, r0
    8ad0:	e51b200c 	ldr	r2, [fp, #-12]
    8ad4:	e1a03332 	lsr	r3, r2, r3
    8ad8:	e50b300c 	str	r3, [fp, #-12]
    8adc:	e51b300c 	ldr	r3, [fp, #-12]
    8ae0:	e2033001 	and	r3, r3, #1
    8ae4:	e50b300c 	str	r3, [fp, #-12]
    8ae8:	e51b300c 	ldr	r3, [fp, #-12]
    8aec:	e1a00003 	mov	r0, r3
    8af0:	e24bd004 	sub	sp, fp, #4
    8af4:	e8bd4800 	pop	{fp, lr}
    8af8:	e12fff1e 	bx	lr

00008afc <gpio_pin_write>:
    8afc:	e92d4800 	push	{fp, lr}
    8b00:	e28db004 	add	fp, sp, #4
    8b04:	e24dd018 	sub	sp, sp, #24
    8b08:	e50b0018 	str	r0, [fp, #-24]
    8b0c:	e50b101c 	str	r1, [fp, #-28]
    8b10:	e51b301c 	ldr	r3, [fp, #-28]
    8b14:	e3530000 	cmp	r3, #0
    8b18:	0a000006 	beq	8b38 <gpio_pin_write+0x3c>
    8b1c:	e51b0018 	ldr	r0, [fp, #-24]
    8b20:	ebfffeaa 	bl	85d0 <gpio_pin_to_set_register>
    8b24:	e50b0008 	str	r0, [fp, #-8]
    8b28:	e51b0018 	ldr	r0, [fp, #-24]
    8b2c:	ebfffeb7 	bl	8610 <gpio_pin_to_set_offset>
    8b30:	e50b000c 	str	r0, [fp, #-12]
    8b34:	ea000005 	b	8b50 <gpio_pin_write+0x54>
    8b38:	e51b0018 	ldr	r0, [fp, #-24]
    8b3c:	ebfffebe 	bl	863c <gpio_pin_to_clear_register>
    8b40:	e50b0008 	str	r0, [fp, #-8]
    8b44:	e51b0018 	ldr	r0, [fp, #-24]
    8b48:	ebfffecb 	bl	867c <gpio_pin_to_clear_offset>
    8b4c:	e50b000c 	str	r0, [fp, #-12]
    8b50:	e51b0008 	ldr	r0, [fp, #-8]
    8b54:	ebfffd77 	bl	8138 <GET32>
    8b58:	e50b0010 	str	r0, [fp, #-16]
    8b5c:	e51b300c 	ldr	r3, [fp, #-12]
    8b60:	e3a02001 	mov	r2, #1
    8b64:	e1a03312 	lsl	r3, r2, r3
    8b68:	e51b2010 	ldr	r2, [fp, #-16]
    8b6c:	e1823003 	orr	r3, r2, r3
    8b70:	e50b3010 	str	r3, [fp, #-16]
    8b74:	e51b0008 	ldr	r0, [fp, #-8]
    8b78:	e51b1010 	ldr	r1, [fp, #-16]
    8b7c:	ebfffd67 	bl	8120 <PUT32>
    8b80:	eb000175 	bl	915c <system_memory_write_barrier>
    8b84:	e24bd004 	sub	sp, fp, #4
    8b88:	e8bd4800 	pop	{fp, lr}
    8b8c:	e12fff1e 	bx	lr

00008b90 <gpio_detect_falling_edge>:
    8b90:	e92d4800 	push	{fp, lr}
    8b94:	e28db004 	add	fp, sp, #4
    8b98:	e24dd018 	sub	sp, sp, #24
    8b9c:	e50b0018 	str	r0, [fp, #-24]
    8ba0:	e51b0018 	ldr	r0, [fp, #-24]
    8ba4:	ebfffeda 	bl	8714 <gpio_pin_to_falling_register>
    8ba8:	e50b0008 	str	r0, [fp, #-8]
    8bac:	e51b0018 	ldr	r0, [fp, #-24]
    8bb0:	ebfffee7 	bl	8754 <gpio_pin_to_falling_offset>
    8bb4:	e50b000c 	str	r0, [fp, #-12]
    8bb8:	eb000160 	bl	9140 <system_memory_read_barrier>
    8bbc:	e51b0008 	ldr	r0, [fp, #-8]
    8bc0:	ebfffd5c 	bl	8138 <GET32>
    8bc4:	e50b0010 	str	r0, [fp, #-16]
    8bc8:	e51b300c 	ldr	r3, [fp, #-12]
    8bcc:	e3a02001 	mov	r2, #1
    8bd0:	e1a03312 	lsl	r3, r2, r3
    8bd4:	e51b2010 	ldr	r2, [fp, #-16]
    8bd8:	e1823003 	orr	r3, r2, r3
    8bdc:	e50b3010 	str	r3, [fp, #-16]
    8be0:	e51b0008 	ldr	r0, [fp, #-8]
    8be4:	e51b1010 	ldr	r1, [fp, #-16]
    8be8:	ebfffd4c 	bl	8120 <PUT32>
    8bec:	eb00015a 	bl	915c <system_memory_write_barrier>
    8bf0:	e24bd004 	sub	sp, fp, #4
    8bf4:	e8bd4800 	pop	{fp, lr}
    8bf8:	e12fff1e 	bx	lr

00008bfc <gpio_detect_rising_edge>:
    8bfc:	e92d4800 	push	{fp, lr}
    8c00:	e28db004 	add	fp, sp, #4
    8c04:	e24dd018 	sub	sp, sp, #24
    8c08:	e50b0018 	str	r0, [fp, #-24]
    8c0c:	e51b0018 	ldr	r0, [fp, #-24]
    8c10:	ebfffeda 	bl	8780 <gpio_pin_to_rising_register>
    8c14:	e50b0008 	str	r0, [fp, #-8]
    8c18:	e51b0018 	ldr	r0, [fp, #-24]
    8c1c:	ebfffee7 	bl	87c0 <gpio_pin_to_rising_offset>
    8c20:	e50b000c 	str	r0, [fp, #-12]
    8c24:	eb000145 	bl	9140 <system_memory_read_barrier>
    8c28:	e51b0008 	ldr	r0, [fp, #-8]
    8c2c:	ebfffd41 	bl	8138 <GET32>
    8c30:	e50b0010 	str	r0, [fp, #-16]
    8c34:	e51b300c 	ldr	r3, [fp, #-12]
    8c38:	e3a02001 	mov	r2, #1
    8c3c:	e1a03312 	lsl	r3, r2, r3
    8c40:	e51b2010 	ldr	r2, [fp, #-16]
    8c44:	e1823003 	orr	r3, r2, r3
    8c48:	e50b3010 	str	r3, [fp, #-16]
    8c4c:	e51b0008 	ldr	r0, [fp, #-8]
    8c50:	e51b1010 	ldr	r1, [fp, #-16]
    8c54:	ebfffd31 	bl	8120 <PUT32>
    8c58:	eb00013f 	bl	915c <system_memory_write_barrier>
    8c5c:	e24bd004 	sub	sp, fp, #4
    8c60:	e8bd4800 	pop	{fp, lr}
    8c64:	e12fff1e 	bx	lr

00008c68 <gpio_check_event>:
    8c68:	e92d4800 	push	{fp, lr}
    8c6c:	e28db004 	add	fp, sp, #4
    8c70:	e24dd018 	sub	sp, sp, #24
    8c74:	e50b0018 	str	r0, [fp, #-24]
    8c78:	e51b0018 	ldr	r0, [fp, #-24]
    8c7c:	ebfffe89 	bl	86a8 <gpio_pin_to_event_register>
    8c80:	e50b0008 	str	r0, [fp, #-8]
    8c84:	e51b0018 	ldr	r0, [fp, #-24]
    8c88:	ebfffe96 	bl	86e8 <gpio_pin_to_event_offset>
    8c8c:	e50b000c 	str	r0, [fp, #-12]
    8c90:	eb00012a 	bl	9140 <system_memory_read_barrier>
    8c94:	e51b0008 	ldr	r0, [fp, #-8]
    8c98:	ebfffd26 	bl	8138 <GET32>
    8c9c:	e50b0010 	str	r0, [fp, #-16]
    8ca0:	e51b300c 	ldr	r3, [fp, #-12]
    8ca4:	e3a02001 	mov	r2, #1
    8ca8:	e1a03312 	lsl	r3, r2, r3
    8cac:	e1a02003 	mov	r2, r3
    8cb0:	e51b3010 	ldr	r3, [fp, #-16]
    8cb4:	e0023003 	and	r3, r2, r3
    8cb8:	e1a00003 	mov	r0, r3
    8cbc:	e24bd004 	sub	sp, fp, #4
    8cc0:	e8bd4800 	pop	{fp, lr}
    8cc4:	e12fff1e 	bx	lr

00008cc8 <gpio_check_and_clear_event>:
    8cc8:	e92d4800 	push	{fp, lr}
    8ccc:	e28db004 	add	fp, sp, #4
    8cd0:	e24dd018 	sub	sp, sp, #24
    8cd4:	e50b0018 	str	r0, [fp, #-24]
    8cd8:	e51b0018 	ldr	r0, [fp, #-24]
    8cdc:	ebfffe71 	bl	86a8 <gpio_pin_to_event_register>
    8ce0:	e50b0008 	str	r0, [fp, #-8]
    8ce4:	e51b0018 	ldr	r0, [fp, #-24]
    8ce8:	ebfffe7e 	bl	86e8 <gpio_pin_to_event_offset>
    8cec:	e50b000c 	str	r0, [fp, #-12]
    8cf0:	eb000112 	bl	9140 <system_memory_read_barrier>
    8cf4:	e51b0008 	ldr	r0, [fp, #-8]
    8cf8:	ebfffd0e 	bl	8138 <GET32>
    8cfc:	e50b0010 	str	r0, [fp, #-16]
    8d00:	e51b300c 	ldr	r3, [fp, #-12]
    8d04:	e3a02001 	mov	r2, #1
    8d08:	e1a03312 	lsl	r3, r2, r3
    8d0c:	e50b3014 	str	r3, [fp, #-20]
    8d10:	e51b0008 	ldr	r0, [fp, #-8]
    8d14:	e51b1014 	ldr	r1, [fp, #-20]
    8d18:	ebfffd00 	bl	8120 <PUT32>
    8d1c:	eb00010e 	bl	915c <system_memory_write_barrier>
    8d20:	e51b2010 	ldr	r2, [fp, #-16]
    8d24:	e51b3014 	ldr	r3, [fp, #-20]
    8d28:	e0023003 	and	r3, r2, r3
    8d2c:	e1a00003 	mov	r0, r3
    8d30:	e24bd004 	sub	sp, fp, #4
    8d34:	e8bd4800 	pop	{fp, lr}
    8d38:	e12fff1e 	bx	lr

00008d3c <gpio_pin_to_udclock_register>:
    8d3c:	e52db004 	push	{fp}		; (str fp, [sp, #-4]!)
    8d40:	e28db000 	add	fp, sp, #0
    8d44:	e24dd00c 	sub	sp, sp, #12
    8d48:	e50b0008 	str	r0, [fp, #-8]
    8d4c:	e51b3008 	ldr	r3, [fp, #-8]
    8d50:	e353001f 	cmp	r3, #31
    8d54:	8a000001 	bhi	8d60 <gpio_pin_to_udclock_register+0x24>
    8d58:	e59f3014 	ldr	r3, [pc, #20]	; 8d74 <gpio_pin_to_udclock_register+0x38>
    8d5c:	ea000000 	b	8d64 <gpio_pin_to_udclock_register+0x28>
    8d60:	e59f3010 	ldr	r3, [pc, #16]	; 8d78 <gpio_pin_to_udclock_register+0x3c>
    8d64:	e1a00003 	mov	r0, r3
    8d68:	e24bd000 	sub	sp, fp, #0
    8d6c:	e49db004 	pop	{fp}		; (ldr fp, [sp], #4)
    8d70:	e12fff1e 	bx	lr
    8d74:	20200098 	mlacs	r0, r8, r0, r0
    8d78:	2020009c 	mlacs	r0, ip, r0, r0

00008d7c <gpio_pin_to_udclock_offset>:
    8d7c:	e52db004 	push	{fp}		; (str fp, [sp, #-4]!)
    8d80:	e28db000 	add	fp, sp, #0
    8d84:	e24dd00c 	sub	sp, sp, #12
    8d88:	e50b0008 	str	r0, [fp, #-8]
    8d8c:	e51b3008 	ldr	r3, [fp, #-8]
    8d90:	e203301f 	and	r3, r3, #31
    8d94:	e1a00003 	mov	r0, r3
    8d98:	e24bd000 	sub	sp, fp, #0
    8d9c:	e49db004 	pop	{fp}		; (ldr fp, [sp], #4)
    8da0:	e12fff1e 	bx	lr

00008da4 <pin_pull>:
    8da4:	e92d4800 	push	{fp, lr}
    8da8:	e28db004 	add	fp, sp, #4
    8dac:	e24dd010 	sub	sp, sp, #16
    8db0:	e50b0010 	str	r0, [fp, #-16]
    8db4:	e50b1014 	str	r1, [fp, #-20]
    8db8:	e51b3014 	ldr	r3, [fp, #-20]
    8dbc:	e2033003 	and	r3, r3, #3
    8dc0:	e59f007c 	ldr	r0, [pc, #124]	; 8e44 <pin_pull+0xa0>
    8dc4:	e1a01003 	mov	r1, r3
    8dc8:	ebfffcd4 	bl	8120 <PUT32>
    8dcc:	e3a00005 	mov	r0, #5
    8dd0:	eb000066 	bl	8f70 <timer_wait_for>
    8dd4:	e51b0010 	ldr	r0, [fp, #-16]
    8dd8:	ebffffd7 	bl	8d3c <gpio_pin_to_udclock_register>
    8ddc:	e50b0008 	str	r0, [fp, #-8]
    8de0:	e51b0010 	ldr	r0, [fp, #-16]
    8de4:	ebffffe4 	bl	8d7c <gpio_pin_to_udclock_offset>
    8de8:	e50b000c 	str	r0, [fp, #-12]
    8dec:	e51b300c 	ldr	r3, [fp, #-12]
    8df0:	e3a02001 	mov	r2, #1
    8df4:	e1a03312 	lsl	r3, r2, r3
    8df8:	e51b0008 	ldr	r0, [fp, #-8]
    8dfc:	e1a01003 	mov	r1, r3
    8e00:	ebfffcc6 	bl	8120 <PUT32>
    8e04:	e3a00005 	mov	r0, #5
    8e08:	eb000058 	bl	8f70 <timer_wait_for>
    8e0c:	e59f0030 	ldr	r0, [pc, #48]	; 8e44 <pin_pull+0xa0>
    8e10:	e3a01000 	mov	r1, #0
    8e14:	ebfffcc1 	bl	8120 <PUT32>
    8e18:	e3a00005 	mov	r0, #5
    8e1c:	eb000053 	bl	8f70 <timer_wait_for>
    8e20:	e59f0020 	ldr	r0, [pc, #32]	; 8e48 <pin_pull+0xa4>
    8e24:	e3a01000 	mov	r1, #0
    8e28:	ebfffcbc 	bl	8120 <PUT32>
    8e2c:	e3a00005 	mov	r0, #5
    8e30:	eb00004e 	bl	8f70 <timer_wait_for>
    8e34:	eb0000c8 	bl	915c <system_memory_write_barrier>
    8e38:	e24bd004 	sub	sp, fp, #4
    8e3c:	e8bd4800 	pop	{fp, lr}
    8e40:	e12fff1e 	bx	lr
    8e44:	20200094 	mlacs	r0, r4, r0, r0
    8e48:	20200098 	mlacs	r0, r8, r0, r0

00008e4c <gpio_set_pullup>:
    8e4c:	e92d4800 	push	{fp, lr}
    8e50:	e28db004 	add	fp, sp, #4
    8e54:	e24dd008 	sub	sp, sp, #8
    8e58:	e50b0008 	str	r0, [fp, #-8]
    8e5c:	e51b0008 	ldr	r0, [fp, #-8]
    8e60:	e3a01002 	mov	r1, #2
    8e64:	ebffffce 	bl	8da4 <pin_pull>
    8e68:	e24bd004 	sub	sp, fp, #4
    8e6c:	e8bd4800 	pop	{fp, lr}
    8e70:	e12fff1e 	bx	lr

00008e74 <gpio_set_pulldown>:
    8e74:	e92d4800 	push	{fp, lr}
    8e78:	e28db004 	add	fp, sp, #4
    8e7c:	e24dd008 	sub	sp, sp, #8
    8e80:	e50b0008 	str	r0, [fp, #-8]
    8e84:	e51b0008 	ldr	r0, [fp, #-8]
    8e88:	e3a01001 	mov	r1, #1
    8e8c:	ebffffc4 	bl	8da4 <pin_pull>
    8e90:	e24bd004 	sub	sp, fp, #4
    8e94:	e8bd4800 	pop	{fp, lr}
    8e98:	e12fff1e 	bx	lr

00008e9c <timer_init>:
    8e9c:	e92d4800 	push	{fp, lr}
    8ea0:	e28db004 	add	fp, sp, #4
    8ea4:	e59f3034 	ldr	r3, [pc, #52]	; 8ee0 <timer_init+0x44>
    8ea8:	e3a02000 	mov	r2, #0
    8eac:	e5c32000 	strb	r2, [r3]
    8eb0:	e59f302c 	ldr	r3, [pc, #44]	; 8ee4 <timer_init+0x48>
    8eb4:	e3a02000 	mov	r2, #0
    8eb8:	e5832000 	str	r2, [r3]
    8ebc:	e59f0024 	ldr	r0, [pc, #36]	; 8ee8 <timer_init+0x4c>
    8ec0:	e3a018f9 	mov	r1, #16318464	; 0xf90000
    8ec4:	ebfffc95 	bl	8120 <PUT32>
    8ec8:	e59f0018 	ldr	r0, [pc, #24]	; 8ee8 <timer_init+0x4c>
    8ecc:	e59f1018 	ldr	r1, [pc, #24]	; 8eec <timer_init+0x50>
    8ed0:	ebfffc92 	bl	8120 <PUT32>
    8ed4:	e24bd004 	sub	sp, fp, #4
    8ed8:	e8bd4800 	pop	{fp, lr}
    8edc:	e12fff1e 	bx	lr
    8ee0:	0000afb8 			; <UNDEFINED> instruction: 0x0000afb8
    8ee4:	0000afbc 			; <UNDEFINED> instruction: 0x0000afbc
    8ee8:	2000b408 	andcs	fp, r0, r8, lsl #8
    8eec:	00f90200 	rscseq	r0, r9, r0, lsl #4

00008ef0 <timer_gettime>:
    8ef0:	e92d4800 	push	{fp, lr}
    8ef4:	e28db004 	add	fp, sp, #4
    8ef8:	e59f0014 	ldr	r0, [pc, #20]	; 8f14 <timer_gettime+0x24>
    8efc:	ebfffc8d 	bl	8138 <GET32>
    8f00:	e1a03000 	mov	r3, r0
    8f04:	e1a00003 	mov	r0, r3
    8f08:	e24bd004 	sub	sp, fp, #4
    8f0c:	e8bd4800 	pop	{fp, lr}
    8f10:	e12fff1e 	bx	lr
    8f14:	2000b420 	andcs	fp, r0, r0, lsr #8

00008f18 <timer_wait_until>:
    8f18:	e92d4800 	push	{fp, lr}
    8f1c:	e28db004 	add	fp, sp, #4
    8f20:	e24dd008 	sub	sp, sp, #8
    8f24:	e50b0008 	str	r0, [fp, #-8]
    8f28:	e1a00000 	nop			; (mov r0, r0)
    8f2c:	ebffffef 	bl	8ef0 <timer_gettime>
    8f30:	e1a02000 	mov	r2, r0
    8f34:	e51b3008 	ldr	r3, [fp, #-8]
    8f38:	e1520003 	cmp	r2, r3
    8f3c:	1afffffa 	bne	8f2c <timer_wait_until+0x14>
    8f40:	e59f3020 	ldr	r3, [pc, #32]	; 8f68 <timer_wait_until+0x50>
    8f44:	e3a02001 	mov	r2, #1
    8f48:	e5c32000 	strb	r2, [r3]
    8f4c:	ebffffe7 	bl	8ef0 <timer_gettime>
    8f50:	e1a02000 	mov	r2, r0
    8f54:	e59f3010 	ldr	r3, [pc, #16]	; 8f6c <timer_wait_until+0x54>
    8f58:	e5832000 	str	r2, [r3]
    8f5c:	e24bd004 	sub	sp, fp, #4
    8f60:	e8bd4800 	pop	{fp, lr}
    8f64:	e12fff1e 	bx	lr
    8f68:	0000afb8 			; <UNDEFINED> instruction: 0x0000afb8
    8f6c:	0000afbc 			; <UNDEFINED> instruction: 0x0000afbc

00008f70 <timer_wait_for>:
    8f70:	e92d4800 	push	{fp, lr}
    8f74:	e28db004 	add	fp, sp, #4
    8f78:	e24dd010 	sub	sp, sp, #16
    8f7c:	e50b0010 	str	r0, [fp, #-16]
    8f80:	ebffffda 	bl	8ef0 <timer_gettime>
    8f84:	e50b0008 	str	r0, [fp, #-8]
    8f88:	e1a00000 	nop			; (mov r0, r0)
    8f8c:	ebffffd7 	bl	8ef0 <timer_gettime>
    8f90:	e1a02000 	mov	r2, r0
    8f94:	e51b3008 	ldr	r3, [fp, #-8]
    8f98:	e0632002 	rsb	r2, r3, r2
    8f9c:	e51b3010 	ldr	r3, [fp, #-16]
    8fa0:	e1520003 	cmp	r2, r3
    8fa4:	3afffff8 	bcc	8f8c <timer_wait_for+0x1c>
    8fa8:	e59f3020 	ldr	r3, [pc, #32]	; 8fd0 <timer_wait_for+0x60>
    8fac:	e3a02001 	mov	r2, #1
    8fb0:	e5c32000 	strb	r2, [r3]
    8fb4:	ebffffcd 	bl	8ef0 <timer_gettime>
    8fb8:	e1a02000 	mov	r2, r0
    8fbc:	e59f3010 	ldr	r3, [pc, #16]	; 8fd4 <timer_wait_for+0x64>
    8fc0:	e5832000 	str	r2, [r3]
    8fc4:	e24bd004 	sub	sp, fp, #4
    8fc8:	e8bd4800 	pop	{fp, lr}
    8fcc:	e12fff1e 	bx	lr
    8fd0:	0000afb8 			; <UNDEFINED> instruction: 0x0000afb8
    8fd4:	0000afbc 			; <UNDEFINED> instruction: 0x0000afbc

00008fd8 <timer_wait_interval>:
    8fd8:	e92d4800 	push	{fp, lr}
    8fdc:	e28db004 	add	fp, sp, #4
    8fe0:	e24dd010 	sub	sp, sp, #16
    8fe4:	e50b0010 	str	r0, [fp, #-16]
    8fe8:	e59f3074 	ldr	r3, [pc, #116]	; 9064 <timer_wait_interval+0x8c>
    8fec:	e5d33000 	ldrb	r3, [r3]
    8ff0:	e3530000 	cmp	r3, #0
    8ff4:	1a000002 	bne	9004 <timer_wait_interval+0x2c>
    8ff8:	e51b0010 	ldr	r0, [fp, #-16]
    8ffc:	ebffffdb 	bl	8f70 <timer_wait_for>
    9000:	ea000014 	b	9058 <timer_wait_interval+0x80>
    9004:	e59f305c 	ldr	r3, [pc, #92]	; 9068 <timer_wait_interval+0x90>
    9008:	e5932000 	ldr	r2, [r3]
    900c:	e51b3010 	ldr	r3, [fp, #-16]
    9010:	e0823003 	add	r3, r2, r3
    9014:	e50b3008 	str	r3, [fp, #-8]
    9018:	ebffffb4 	bl	8ef0 <timer_gettime>
    901c:	e1a03000 	mov	r3, r0
    9020:	e51b2008 	ldr	r2, [fp, #-8]
    9024:	e0633002 	rsb	r3, r3, r2
    9028:	e50b300c 	str	r3, [fp, #-12]
    902c:	e51b200c 	ldr	r2, [fp, #-12]
    9030:	e51b3010 	ldr	r3, [fp, #-16]
    9034:	e1520003 	cmp	r2, r3
    9038:	9a000004 	bls	9050 <timer_wait_interval+0x78>
    903c:	ebffffab 	bl	8ef0 <timer_gettime>
    9040:	e1a02000 	mov	r2, r0
    9044:	e59f301c 	ldr	r3, [pc, #28]	; 9068 <timer_wait_interval+0x90>
    9048:	e5832000 	str	r2, [r3]
    904c:	ea000001 	b	9058 <timer_wait_interval+0x80>
    9050:	e51b000c 	ldr	r0, [fp, #-12]
    9054:	ebffffc5 	bl	8f70 <timer_wait_for>
    9058:	e24bd004 	sub	sp, fp, #4
    905c:	e8bd4800 	pop	{fp, lr}
    9060:	e12fff1e 	bx	lr
    9064:	0000afb8 			; <UNDEFINED> instruction: 0x0000afb8
    9068:	0000afbc 			; <UNDEFINED> instruction: 0x0000afbc

0000906c <system_enable_branch_prediction>:
    906c:	e52db004 	push	{fp}		; (str fp, [sp, #-4]!)
    9070:	e28db000 	add	fp, sp, #0
    9074:	e24dd00c 	sub	sp, sp, #12
    9078:	ee113f10 	mrc	15, 0, r3, cr1, cr0, {0}
    907c:	e50b3008 	str	r3, [fp, #-8]
    9080:	e51b3008 	ldr	r3, [fp, #-8]
    9084:	e3833b02 	orr	r3, r3, #2048	; 0x800
    9088:	e50b3008 	str	r3, [fp, #-8]
    908c:	e51b3008 	ldr	r3, [fp, #-8]
    9090:	ee013f10 	mcr	15, 0, r3, cr1, cr0, {0}
    9094:	e3a03000 	mov	r3, #0
    9098:	e50b3008 	str	r3, [fp, #-8]
    909c:	e51b3008 	ldr	r3, [fp, #-8]
    90a0:	ee073f17 	mcr	15, 0, r3, cr7, cr7, {0}
    90a4:	e24bd000 	sub	sp, fp, #0
    90a8:	e49db004 	pop	{fp}		; (ldr fp, [sp], #4)
    90ac:	e12fff1e 	bx	lr

000090b0 <system_enable_caches>:
    90b0:	e52db004 	push	{fp}		; (str fp, [sp, #-4]!)
    90b4:	e28db000 	add	fp, sp, #0
    90b8:	e24dd00c 	sub	sp, sp, #12
    90bc:	ee113f10 	mrc	15, 0, r3, cr1, cr0, {0}
    90c0:	e50b3008 	str	r3, [fp, #-8]
    90c4:	e51b3008 	ldr	r3, [fp, #-8]
    90c8:	e3833a01 	orr	r3, r3, #4096	; 0x1000
    90cc:	e3833004 	orr	r3, r3, #4
    90d0:	e50b3008 	str	r3, [fp, #-8]
    90d4:	e51b3008 	ldr	r3, [fp, #-8]
    90d8:	ee013f10 	mcr	15, 0, r3, cr1, cr0, {0}
    90dc:	e3a03000 	mov	r3, #0
    90e0:	e50b3008 	str	r3, [fp, #-8]
    90e4:	e51b3008 	ldr	r3, [fp, #-8]
    90e8:	ee073f17 	mcr	15, 0, r3, cr7, cr7, {0}
    90ec:	e51b3008 	ldr	r3, [fp, #-8]
    90f0:	ee073f1a 	mcr	15, 0, r3, cr7, cr10, {0}
    90f4:	e24bd000 	sub	sp, fp, #0
    90f8:	e49db004 	pop	{fp}		; (ldr fp, [sp], #4)
    90fc:	e12fff1e 	bx	lr

00009100 <system_enable_interrupts>:
    9100:	e52db004 	push	{fp}		; (str fp, [sp, #-4]!)
    9104:	e28db000 	add	fp, sp, #0
    9108:	e10f0000 	mrs	r0, CPSR
    910c:	e3c00080 	bic	r0, r0, #128	; 0x80
    9110:	e121f000 	msr	CPSR_c, r0
    9114:	e24bd000 	sub	sp, fp, #0
    9118:	e49db004 	pop	{fp}		; (ldr fp, [sp], #4)
    911c:	e12fff1e 	bx	lr

00009120 <system_disable_interrupts>:
    9120:	e52db004 	push	{fp}		; (str fp, [sp, #-4]!)
    9124:	e28db000 	add	fp, sp, #0
    9128:	e10f0000 	mrs	r0, CPSR
    912c:	e3800080 	orr	r0, r0, #128	; 0x80
    9130:	e121f000 	msr	CPSR_c, r0
    9134:	e24bd000 	sub	sp, fp, #0
    9138:	e49db004 	pop	{fp}		; (ldr fp, [sp], #4)
    913c:	e12fff1e 	bx	lr

00009140 <system_memory_read_barrier>:
    9140:	e52db004 	push	{fp}		; (str fp, [sp, #-4]!)
    9144:	e28db000 	add	fp, sp, #0
    9148:	e3a03000 	mov	r3, #0
    914c:	ee073f9a 	mcr	15, 0, r3, cr7, cr10, {4}
    9150:	e24bd000 	sub	sp, fp, #0
    9154:	e49db004 	pop	{fp}		; (ldr fp, [sp], #4)
    9158:	e12fff1e 	bx	lr

0000915c <system_memory_write_barrier>:
    915c:	e52db004 	push	{fp}		; (str fp, [sp, #-4]!)
    9160:	e28db000 	add	fp, sp, #0
    9164:	e3a03000 	mov	r3, #0
    9168:	ee073f9a 	mcr	15, 0, r3, cr7, cr10, {4}
    916c:	e24bd000 	sub	sp, fp, #0
    9170:	e49db004 	pop	{fp}		; (ldr fp, [sp], #4)
    9174:	e12fff1e 	bx	lr

00009178 <system_memory_full_barrier>:
    9178:	e52db004 	push	{fp}		; (str fp, [sp, #-4]!)
    917c:	e28db000 	add	fp, sp, #0
    9180:	e3a03000 	mov	r3, #0
    9184:	ee073f1a 	mcr	15, 0, r3, cr7, cr10, {0}
    9188:	e3a03000 	mov	r3, #0
    918c:	ee073f9a 	mcr	15, 0, r3, cr7, cr10, {4}
    9190:	e3a03000 	mov	r3, #0
    9194:	ee073f15 	mcr	15, 0, r3, cr7, cr5, {0}
    9198:	e3a03000 	mov	r3, #0
    919c:	ee073fd5 	mcr	15, 0, r3, cr7, cr5, {6}
    91a0:	e3a03000 	mov	r3, #0
    91a4:	ee073f9a 	mcr	15, 0, r3, cr7, cr10, {4}
    91a8:	e3a03000 	mov	r3, #0
    91ac:	ee073f95 	mcr	15, 0, r3, cr7, cr5, {4}
    91b0:	e3a03000 	mov	r3, #0
    91b4:	ee073fba 	mcr	15, 0, r3, cr7, cr10, {5}
    91b8:	e24bd000 	sub	sp, fp, #0
    91bc:	e49db004 	pop	{fp}		; (ldr fp, [sp], #4)
    91c0:	e12fff1e 	bx	lr

000091c4 <uart_init>:
    91c4:	e92d4800 	push	{fp, lr}
    91c8:	e28db004 	add	fp, sp, #4
    91cc:	e24dd008 	sub	sp, sp, #8
    91d0:	e59f30b0 	ldr	r3, [pc, #176]	; 9288 <uart_init+0xc4>
    91d4:	e50b3008 	str	r3, [fp, #-8]
    91d8:	e51b3008 	ldr	r3, [fp, #-8]
    91dc:	e3a02001 	mov	r2, #1
    91e0:	e5832000 	str	r2, [r3]
    91e4:	e59f30a0 	ldr	r3, [pc, #160]	; 928c <uart_init+0xc8>
    91e8:	e5933000 	ldr	r3, [r3]
    91ec:	e3a02000 	mov	r2, #0
    91f0:	e5832004 	str	r2, [r3, #4]
    91f4:	e59f3090 	ldr	r3, [pc, #144]	; 928c <uart_init+0xc8>
    91f8:	e5933000 	ldr	r3, [r3]
    91fc:	e3a02000 	mov	r2, #0
    9200:	e5832020 	str	r2, [r3, #32]
    9204:	e59f3080 	ldr	r3, [pc, #128]	; 928c <uart_init+0xc8>
    9208:	e5933000 	ldr	r3, [r3]
    920c:	e3a02003 	mov	r2, #3
    9210:	e583200c 	str	r2, [r3, #12]
    9214:	e59f3070 	ldr	r3, [pc, #112]	; 928c <uart_init+0xc8>
    9218:	e5933000 	ldr	r3, [r3]
    921c:	e3a02000 	mov	r2, #0
    9220:	e5832010 	str	r2, [r3, #16]
    9224:	e59f3060 	ldr	r3, [pc, #96]	; 928c <uart_init+0xc8>
    9228:	e5933000 	ldr	r3, [r3]
    922c:	e3a02000 	mov	r2, #0
    9230:	e5832004 	str	r2, [r3, #4]
    9234:	e59f3050 	ldr	r3, [pc, #80]	; 928c <uart_init+0xc8>
    9238:	e5933000 	ldr	r3, [r3]
    923c:	e3a0200e 	mov	r2, #14
    9240:	e5832008 	str	r2, [r3, #8]
    9244:	e59f3040 	ldr	r3, [pc, #64]	; 928c <uart_init+0xc8>
    9248:	e5933000 	ldr	r3, [r3]
    924c:	e59f203c 	ldr	r2, [pc, #60]	; 9290 <uart_init+0xcc>
    9250:	e5832028 	str	r2, [r3, #40]	; 0x28
    9254:	e3a0000e 	mov	r0, #14
    9258:	e3a01002 	mov	r1, #2
    925c:	ebfffc04 	bl	8274 <pinMode>
    9260:	e3a0000f 	mov	r0, #15
    9264:	e3a01002 	mov	r1, #2
    9268:	ebfffc01 	bl	8274 <pinMode>
    926c:	e59f3018 	ldr	r3, [pc, #24]	; 928c <uart_init+0xc8>
    9270:	e5933000 	ldr	r3, [r3]
    9274:	e3a02003 	mov	r2, #3
    9278:	e5832020 	str	r2, [r3, #32]
    927c:	e24bd004 	sub	sp, fp, #4
    9280:	e8bd4800 	pop	{fp, lr}
    9284:	e12fff1e 	bx	lr
    9288:	20215004 	eorcs	r5, r1, r4
    928c:	0000af9c 	muleq	r0, ip, pc	; <UNPREDICTABLE>
    9290:	0000010e 	andeq	r0, r0, lr, lsl #2

00009294 <uart_getc>:
    9294:	e52db004 	push	{fp}		; (str fp, [sp, #-4]!)
    9298:	e28db000 	add	fp, sp, #0
    929c:	e59f3038 	ldr	r3, [pc, #56]	; 92dc <uart_getc+0x48>
    92a0:	e5933000 	ldr	r3, [r3]
    92a4:	e5933014 	ldr	r3, [r3, #20]
    92a8:	e2033001 	and	r3, r3, #1
    92ac:	e3530000 	cmp	r3, #0
    92b0:	0a000000 	beq	92b8 <uart_getc+0x24>
    92b4:	ea000000 	b	92bc <uart_getc+0x28>
    92b8:	eafffff7 	b	929c <uart_getc+0x8>
    92bc:	e59f3018 	ldr	r3, [pc, #24]	; 92dc <uart_getc+0x48>
    92c0:	e5933000 	ldr	r3, [r3]
    92c4:	e5933000 	ldr	r3, [r3]
    92c8:	e20330ff 	and	r3, r3, #255	; 0xff
    92cc:	e1a00003 	mov	r0, r3
    92d0:	e24bd000 	sub	sp, fp, #0
    92d4:	e49db004 	pop	{fp}		; (ldr fp, [sp], #4)
    92d8:	e12fff1e 	bx	lr
    92dc:	0000af9c 	muleq	r0, ip, pc	; <UNPREDICTABLE>

000092e0 <uart_putc>:
    92e0:	e92d4800 	push	{fp, lr}
    92e4:	e28db004 	add	fp, sp, #4
    92e8:	e24dd008 	sub	sp, sp, #8
    92ec:	e50b0008 	str	r0, [fp, #-8]
    92f0:	e51b3008 	ldr	r3, [fp, #-8]
    92f4:	e353000a 	cmp	r3, #10
    92f8:	1a000001 	bne	9304 <uart_putc+0x24>
    92fc:	e3a0000d 	mov	r0, #13
    9300:	ebfffff6 	bl	92e0 <uart_putc>
    9304:	e59f3034 	ldr	r3, [pc, #52]	; 9340 <uart_putc+0x60>
    9308:	e5933000 	ldr	r3, [r3]
    930c:	e5933014 	ldr	r3, [r3, #20]
    9310:	e2033020 	and	r3, r3, #32
    9314:	e3530000 	cmp	r3, #0
    9318:	0a000000 	beq	9320 <uart_putc+0x40>
    931c:	ea000000 	b	9324 <uart_putc+0x44>
    9320:	eafffff7 	b	9304 <uart_putc+0x24>
    9324:	e59f3014 	ldr	r3, [pc, #20]	; 9340 <uart_putc+0x60>
    9328:	e5933000 	ldr	r3, [r3]
    932c:	e51b2008 	ldr	r2, [fp, #-8]
    9330:	e5832000 	str	r2, [r3]
    9334:	e24bd004 	sub	sp, fp, #4
    9338:	e8bd4800 	pop	{fp, lr}
    933c:	e12fff1e 	bx	lr
    9340:	0000af9c 	muleq	r0, ip, pc	; <UNPREDICTABLE>

00009344 <uart_flush>:
    9344:	e52db004 	push	{fp}		; (str fp, [sp, #-4]!)
    9348:	e28db000 	add	fp, sp, #0
    934c:	e59f3024 	ldr	r3, [pc, #36]	; 9378 <uart_flush+0x34>
    9350:	e5933000 	ldr	r3, [r3]
    9354:	e5933014 	ldr	r3, [r3, #20]
    9358:	e2033020 	and	r3, r3, #32
    935c:	e3530000 	cmp	r3, #0
    9360:	0a000000 	beq	9368 <uart_flush+0x24>
    9364:	ea000000 	b	936c <uart_flush+0x28>
    9368:	eafffff7 	b	934c <uart_flush+0x8>
    936c:	e24bd000 	sub	sp, fp, #0
    9370:	e49db004 	pop	{fp}		; (ldr fp, [sp], #4)
    9374:	e12fff1e 	bx	lr
    9378:	0000af9c 	muleq	r0, ip, pc	; <UNPREDICTABLE>

0000937c <intobase>:
    937c:	e52db004 	push	{fp}		; (str fp, [sp, #-4]!)
    9380:	e28db000 	add	fp, sp, #0
    9384:	e24dd044 	sub	sp, sp, #68	; 0x44
    9388:	e50b0038 	str	r0, [fp, #-56]	; 0x38
    938c:	e50b103c 	str	r1, [fp, #-60]	; 0x3c
    9390:	e50b2040 	str	r2, [fp, #-64]	; 0x40
    9394:	e50b3044 	str	r3, [fp, #-68]	; 0x44
    9398:	e3a03000 	mov	r3, #0
    939c:	e50b3008 	str	r3, [fp, #-8]
    93a0:	e3a03000 	mov	r3, #0
    93a4:	e50b300c 	str	r3, [fp, #-12]
    93a8:	e51b3040 	ldr	r3, [fp, #-64]	; 0x40
    93ac:	e3530000 	cmp	r3, #0
    93b0:	aa000007 	bge	93d4 <intobase+0x58>
    93b4:	e59b3004 	ldr	r3, [fp, #4]
    93b8:	e353000a 	cmp	r3, #10
    93bc:	1a000004 	bne	93d4 <intobase+0x58>
    93c0:	e51b3040 	ldr	r3, [fp, #-64]	; 0x40
    93c4:	e2633000 	rsb	r3, r3, #0
    93c8:	e50b3040 	str	r3, [fp, #-64]	; 0x40
    93cc:	e3a03001 	mov	r3, #1
    93d0:	e50b300c 	str	r3, [fp, #-12]
    93d4:	e59b3004 	ldr	r3, [fp, #4]
    93d8:	e353000a 	cmp	r3, #10
    93dc:	1a000022 	bne	946c <intobase+0xf0>
    93e0:	ea00001d 	b	945c <intobase+0xe0>
    93e4:	e51b1040 	ldr	r1, [fp, #-64]	; 0x40
    93e8:	e59f3334 	ldr	r3, [pc, #820]	; 9724 <intobase+0x3a8>
    93ec:	e0c30391 	smull	r0, r3, r1, r3
    93f0:	e1a02143 	asr	r2, r3, #2
    93f4:	e1a03fc1 	asr	r3, r1, #31
    93f8:	e0632002 	rsb	r2, r3, r2
    93fc:	e1a03002 	mov	r3, r2
    9400:	e1a03103 	lsl	r3, r3, #2
    9404:	e0833002 	add	r3, r3, r2
    9408:	e1a03083 	lsl	r3, r3, #1
    940c:	e0632001 	rsb	r2, r3, r1
    9410:	e20230ff 	and	r3, r2, #255	; 0xff
    9414:	e2833030 	add	r3, r3, #48	; 0x30
    9418:	e20320ff 	and	r2, r3, #255	; 0xff
    941c:	e3e0302b 	mvn	r3, #43	; 0x2b
    9420:	e51b1008 	ldr	r1, [fp, #-8]
    9424:	e24b0004 	sub	r0, fp, #4
    9428:	e0801001 	add	r1, r0, r1
    942c:	e0813003 	add	r3, r1, r3
    9430:	e5c32000 	strb	r2, [r3]
    9434:	e51b3040 	ldr	r3, [fp, #-64]	; 0x40
    9438:	e59f22e4 	ldr	r2, [pc, #740]	; 9724 <intobase+0x3a8>
    943c:	e0c21293 	smull	r1, r2, r3, r2
    9440:	e1a02142 	asr	r2, r2, #2
    9444:	e1a03fc3 	asr	r3, r3, #31
    9448:	e0633002 	rsb	r3, r3, r2
    944c:	e50b3040 	str	r3, [fp, #-64]	; 0x40
    9450:	e51b3008 	ldr	r3, [fp, #-8]
    9454:	e2833001 	add	r3, r3, #1
    9458:	e50b3008 	str	r3, [fp, #-8]
    945c:	e51b3040 	ldr	r3, [fp, #-64]	; 0x40
    9460:	e3530000 	cmp	r3, #0
    9464:	caffffde 	bgt	93e4 <intobase+0x68>
    9468:	ea00003a 	b	9558 <intobase+0x1dc>
    946c:	e59b3004 	ldr	r3, [fp, #4]
    9470:	e3530002 	cmp	r3, #2
    9474:	1a00001b 	bne	94e8 <intobase+0x16c>
    9478:	e3a03000 	mov	r3, #0
    947c:	e50b3010 	str	r3, [fp, #-16]
    9480:	ea000014 	b	94d8 <intobase+0x15c>
    9484:	e51b3040 	ldr	r3, [fp, #-64]	; 0x40
    9488:	e20330ff 	and	r3, r3, #255	; 0xff
    948c:	e2033001 	and	r3, r3, #1
    9490:	e20330ff 	and	r3, r3, #255	; 0xff
    9494:	e2833030 	add	r3, r3, #48	; 0x30
    9498:	e20320ff 	and	r2, r3, #255	; 0xff
    949c:	e3e0302b 	mvn	r3, #43	; 0x2b
    94a0:	e51b1008 	ldr	r1, [fp, #-8]
    94a4:	e24b0004 	sub	r0, fp, #4
    94a8:	e0801001 	add	r1, r0, r1
    94ac:	e0813003 	add	r3, r1, r3
    94b0:	e5c32000 	strb	r2, [r3]
    94b4:	e51b3040 	ldr	r3, [fp, #-64]	; 0x40
    94b8:	e1a030c3 	asr	r3, r3, #1
    94bc:	e50b3040 	str	r3, [fp, #-64]	; 0x40
    94c0:	e51b3008 	ldr	r3, [fp, #-8]
    94c4:	e2833001 	add	r3, r3, #1
    94c8:	e50b3008 	str	r3, [fp, #-8]
    94cc:	e51b3010 	ldr	r3, [fp, #-16]
    94d0:	e2833001 	add	r3, r3, #1
    94d4:	e50b3010 	str	r3, [fp, #-16]
    94d8:	e51b3010 	ldr	r3, [fp, #-16]
    94dc:	e353001f 	cmp	r3, #31
    94e0:	daffffe7 	ble	9484 <intobase+0x108>
    94e4:	ea00001b 	b	9558 <intobase+0x1dc>
    94e8:	e59b3004 	ldr	r3, [fp, #4]
    94ec:	e3530010 	cmp	r3, #16
    94f0:	1a000018 	bne	9558 <intobase+0x1dc>
    94f4:	e3a03000 	mov	r3, #0
    94f8:	e50b3010 	str	r3, [fp, #-16]
    94fc:	ea000012 	b	954c <intobase+0x1d0>
    9500:	e51b3040 	ldr	r3, [fp, #-64]	; 0x40
    9504:	e203300f 	and	r3, r3, #15
    9508:	e59f2218 	ldr	r2, [pc, #536]	; 9728 <intobase+0x3ac>
    950c:	e7d22003 	ldrb	r2, [r2, r3]
    9510:	e3e0302b 	mvn	r3, #43	; 0x2b
    9514:	e51b1008 	ldr	r1, [fp, #-8]
    9518:	e24b0004 	sub	r0, fp, #4
    951c:	e0801001 	add	r1, r0, r1
    9520:	e0813003 	add	r3, r1, r3
    9524:	e5c32000 	strb	r2, [r3]
    9528:	e51b3040 	ldr	r3, [fp, #-64]	; 0x40
    952c:	e1a03243 	asr	r3, r3, #4
    9530:	e50b3040 	str	r3, [fp, #-64]	; 0x40
    9534:	e51b3008 	ldr	r3, [fp, #-8]
    9538:	e2833001 	add	r3, r3, #1
    953c:	e50b3008 	str	r3, [fp, #-8]
    9540:	e51b3010 	ldr	r3, [fp, #-16]
    9544:	e2833001 	add	r3, r3, #1
    9548:	e50b3010 	str	r3, [fp, #-16]
    954c:	e51b3010 	ldr	r3, [fp, #-16]
    9550:	e3530007 	cmp	r3, #7
    9554:	daffffe9 	ble	9500 <intobase+0x184>
    9558:	e51b300c 	ldr	r3, [fp, #-12]
    955c:	e3530000 	cmp	r3, #0
    9560:	0a000009 	beq	958c <intobase+0x210>
    9564:	e3e0302b 	mvn	r3, #43	; 0x2b
    9568:	e51b2008 	ldr	r2, [fp, #-8]
    956c:	e24b1004 	sub	r1, fp, #4
    9570:	e0812002 	add	r2, r1, r2
    9574:	e0823003 	add	r3, r2, r3
    9578:	e3a0202d 	mov	r2, #45	; 0x2d
    957c:	e5c32000 	strb	r2, [r3]
    9580:	e51b3008 	ldr	r3, [fp, #-8]
    9584:	e2833001 	add	r3, r3, #1
    9588:	e50b3008 	str	r3, [fp, #-8]
    958c:	e51b2008 	ldr	r2, [fp, #-8]
    9590:	e51b3044 	ldr	r3, [fp, #-68]	; 0x44
    9594:	e1520003 	cmp	r2, r3
    9598:	ba000025 	blt	9634 <intobase+0x2b8>
    959c:	e51b203c 	ldr	r2, [fp, #-60]	; 0x3c
    95a0:	e51b3008 	ldr	r3, [fp, #-8]
    95a4:	e1520003 	cmp	r2, r3
    95a8:	ca000002 	bgt	95b8 <intobase+0x23c>
    95ac:	e51b303c 	ldr	r3, [fp, #-60]	; 0x3c
    95b0:	e2433001 	sub	r3, r3, #1
    95b4:	ea000000 	b	95bc <intobase+0x240>
    95b8:	e51b3008 	ldr	r3, [fp, #-8]
    95bc:	e50b303c 	str	r3, [fp, #-60]	; 0x3c
    95c0:	e3a03000 	mov	r3, #0
    95c4:	e50b3010 	str	r3, [fp, #-16]
    95c8:	ea00000f 	b	960c <intobase+0x290>
    95cc:	e51b3010 	ldr	r3, [fp, #-16]
    95d0:	e51b2038 	ldr	r2, [fp, #-56]	; 0x38
    95d4:	e0823003 	add	r3, r2, r3
    95d8:	e51b2008 	ldr	r2, [fp, #-8]
    95dc:	e2421001 	sub	r1, r2, #1
    95e0:	e51b2010 	ldr	r2, [fp, #-16]
    95e4:	e0621001 	rsb	r1, r2, r1
    95e8:	e3e0202b 	mvn	r2, #43	; 0x2b
    95ec:	e24b0004 	sub	r0, fp, #4
    95f0:	e0801001 	add	r1, r0, r1
    95f4:	e0812002 	add	r2, r1, r2
    95f8:	e5d22000 	ldrb	r2, [r2]
    95fc:	e5c32000 	strb	r2, [r3]
    9600:	e51b3010 	ldr	r3, [fp, #-16]
    9604:	e2833001 	add	r3, r3, #1
    9608:	e50b3010 	str	r3, [fp, #-16]
    960c:	e51b2010 	ldr	r2, [fp, #-16]
    9610:	e51b303c 	ldr	r3, [fp, #-60]	; 0x3c
    9614:	e1520003 	cmp	r2, r3
    9618:	baffffeb 	blt	95cc <intobase+0x250>
    961c:	e51b303c 	ldr	r3, [fp, #-60]	; 0x3c
    9620:	e51b2038 	ldr	r2, [fp, #-56]	; 0x38
    9624:	e0823003 	add	r3, r2, r3
    9628:	e3a02000 	mov	r2, #0
    962c:	e5c32000 	strb	r2, [r3]
    9630:	ea000036 	b	9710 <intobase+0x394>
    9634:	e51b303c 	ldr	r3, [fp, #-60]	; 0x3c
    9638:	e2433001 	sub	r3, r3, #1
    963c:	e51b2044 	ldr	r2, [fp, #-68]	; 0x44
    9640:	e1530002 	cmp	r3, r2
    9644:	a1a03002 	movge	r3, r2
    9648:	e50b3044 	str	r3, [fp, #-68]	; 0x44
    964c:	e3a03000 	mov	r3, #0
    9650:	e50b3010 	str	r3, [fp, #-16]
    9654:	ea000007 	b	9678 <intobase+0x2fc>
    9658:	e51b3010 	ldr	r3, [fp, #-16]
    965c:	e51b2038 	ldr	r2, [fp, #-56]	; 0x38
    9660:	e0823003 	add	r3, r2, r3
    9664:	e3a02030 	mov	r2, #48	; 0x30
    9668:	e5c32000 	strb	r2, [r3]
    966c:	e51b3010 	ldr	r3, [fp, #-16]
    9670:	e2833001 	add	r3, r3, #1
    9674:	e50b3010 	str	r3, [fp, #-16]
    9678:	e51b2044 	ldr	r2, [fp, #-68]	; 0x44
    967c:	e51b3008 	ldr	r3, [fp, #-8]
    9680:	e0632002 	rsb	r2, r3, r2
    9684:	e51b3010 	ldr	r3, [fp, #-16]
    9688:	e1520003 	cmp	r2, r3
    968c:	cafffff1 	bgt	9658 <intobase+0x2dc>
    9690:	e3a03000 	mov	r3, #0
    9694:	e50b3010 	str	r3, [fp, #-16]
    9698:	ea000013 	b	96ec <intobase+0x370>
    969c:	e51b2044 	ldr	r2, [fp, #-68]	; 0x44
    96a0:	e51b3008 	ldr	r3, [fp, #-8]
    96a4:	e0632002 	rsb	r2, r3, r2
    96a8:	e51b3010 	ldr	r3, [fp, #-16]
    96ac:	e0823003 	add	r3, r2, r3
    96b0:	e51b2038 	ldr	r2, [fp, #-56]	; 0x38
    96b4:	e0823003 	add	r3, r2, r3
    96b8:	e51b2008 	ldr	r2, [fp, #-8]
    96bc:	e2421001 	sub	r1, r2, #1
    96c0:	e51b2010 	ldr	r2, [fp, #-16]
    96c4:	e0621001 	rsb	r1, r2, r1
    96c8:	e3e0202b 	mvn	r2, #43	; 0x2b
    96cc:	e24b0004 	sub	r0, fp, #4
    96d0:	e0801001 	add	r1, r0, r1
    96d4:	e0812002 	add	r2, r1, r2
    96d8:	e5d22000 	ldrb	r2, [r2]
    96dc:	e5c32000 	strb	r2, [r3]
    96e0:	e51b3010 	ldr	r3, [fp, #-16]
    96e4:	e2833001 	add	r3, r3, #1
    96e8:	e50b3010 	str	r3, [fp, #-16]
    96ec:	e51b2010 	ldr	r2, [fp, #-16]
    96f0:	e51b3008 	ldr	r3, [fp, #-8]
    96f4:	e1520003 	cmp	r2, r3
    96f8:	baffffe7 	blt	969c <intobase+0x320>
    96fc:	e51b3044 	ldr	r3, [fp, #-68]	; 0x44
    9700:	e51b2038 	ldr	r2, [fp, #-56]	; 0x38
    9704:	e0823003 	add	r3, r2, r3
    9708:	e3a02000 	mov	r2, #0
    970c:	e5c32000 	strb	r2, [r3]
    9710:	e51b3038 	ldr	r3, [fp, #-56]	; 0x38
    9714:	e1a00003 	mov	r0, r3
    9718:	e24bd000 	sub	sp, fp, #0
    971c:	e49db004 	pop	{fp}		; (ldr fp, [sp], #4)
    9720:	e12fff1e 	bx	lr
    9724:	66666667 	strbtvs	r6, [r6], -r7, ror #12
    9728:	0000afa0 	andeq	sl, r0, r0, lsr #31

0000972c <intodec>:
    972c:	e92d4800 	push	{fp, lr}
    9730:	e28db004 	add	fp, sp, #4
    9734:	e24dd018 	sub	sp, sp, #24
    9738:	e50b0008 	str	r0, [fp, #-8]
    973c:	e50b100c 	str	r1, [fp, #-12]
    9740:	e50b2010 	str	r2, [fp, #-16]
    9744:	e50b3014 	str	r3, [fp, #-20]
    9748:	e3a0300a 	mov	r3, #10
    974c:	e58d3000 	str	r3, [sp]
    9750:	e51b0008 	ldr	r0, [fp, #-8]
    9754:	e51b100c 	ldr	r1, [fp, #-12]
    9758:	e51b2010 	ldr	r2, [fp, #-16]
    975c:	e51b3014 	ldr	r3, [fp, #-20]
    9760:	ebffff05 	bl	937c <intobase>
    9764:	e1a03000 	mov	r3, r0
    9768:	e1a00003 	mov	r0, r3
    976c:	e24bd004 	sub	sp, fp, #4
    9770:	e8bd4800 	pop	{fp, lr}
    9774:	e12fff1e 	bx	lr

00009778 <intobin>:
    9778:	e92d4800 	push	{fp, lr}
    977c:	e28db004 	add	fp, sp, #4
    9780:	e24dd018 	sub	sp, sp, #24
    9784:	e50b0008 	str	r0, [fp, #-8]
    9788:	e50b100c 	str	r1, [fp, #-12]
    978c:	e50b2010 	str	r2, [fp, #-16]
    9790:	e50b3014 	str	r3, [fp, #-20]
    9794:	e3a03002 	mov	r3, #2
    9798:	e58d3000 	str	r3, [sp]
    979c:	e51b0008 	ldr	r0, [fp, #-8]
    97a0:	e51b100c 	ldr	r1, [fp, #-12]
    97a4:	e51b2010 	ldr	r2, [fp, #-16]
    97a8:	e51b3014 	ldr	r3, [fp, #-20]
    97ac:	ebfffef2 	bl	937c <intobase>
    97b0:	e1a03000 	mov	r3, r0
    97b4:	e1a00003 	mov	r0, r3
    97b8:	e24bd004 	sub	sp, fp, #4
    97bc:	e8bd4800 	pop	{fp, lr}
    97c0:	e12fff1e 	bx	lr

000097c4 <intohex>:
    97c4:	e92d4800 	push	{fp, lr}
    97c8:	e28db004 	add	fp, sp, #4
    97cc:	e24dd018 	sub	sp, sp, #24
    97d0:	e50b0008 	str	r0, [fp, #-8]
    97d4:	e50b100c 	str	r1, [fp, #-12]
    97d8:	e50b2010 	str	r2, [fp, #-16]
    97dc:	e50b3014 	str	r3, [fp, #-20]
    97e0:	e3a03010 	mov	r3, #16
    97e4:	e58d3000 	str	r3, [sp]
    97e8:	e51b0008 	ldr	r0, [fp, #-8]
    97ec:	e51b100c 	ldr	r1, [fp, #-12]
    97f0:	e51b2010 	ldr	r2, [fp, #-16]
    97f4:	e51b3014 	ldr	r3, [fp, #-20]
    97f8:	ebfffedf 	bl	937c <intobase>
    97fc:	e1a03000 	mov	r3, r0
    9800:	e1a00003 	mov	r0, r3
    9804:	e24bd004 	sub	sp, fp, #4
    9808:	e8bd4800 	pop	{fp, lr}
    980c:	e12fff1e 	bx	lr

00009810 <snprintf>:
    9810:	e92d000c 	push	{r2, r3}
    9814:	e92d4800 	push	{fp, lr}
    9818:	e28db004 	add	fp, sp, #4
    981c:	e24dd010 	sub	sp, sp, #16
    9820:	e50b0010 	str	r0, [fp, #-16]
    9824:	e50b1014 	str	r1, [fp, #-20]
    9828:	e28b3008 	add	r3, fp, #8
    982c:	e50b300c 	str	r3, [fp, #-12]
    9830:	e51b0010 	ldr	r0, [fp, #-16]
    9834:	e51b1014 	ldr	r1, [fp, #-20]
    9838:	e59b2004 	ldr	r2, [fp, #4]
    983c:	e51b300c 	ldr	r3, [fp, #-12]
    9840:	eb0000c9 	bl	9b6c <snprintf_ap>
    9844:	e50b0008 	str	r0, [fp, #-8]
    9848:	e51b3008 	ldr	r3, [fp, #-8]
    984c:	e1a00003 	mov	r0, r3
    9850:	e24bd004 	sub	sp, fp, #4
    9854:	e8bd4800 	pop	{fp, lr}
    9858:	e28dd008 	add	sp, sp, #8
    985c:	e12fff1e 	bx	lr

00009860 <getLength>:
    9860:	e92d4800 	push	{fp, lr}
    9864:	e28db004 	add	fp, sp, #4
    9868:	e24dd048 	sub	sp, sp, #72	; 0x48
    986c:	e50b0048 	str	r0, [fp, #-72]	; 0x48
    9870:	e50b104c 	str	r1, [fp, #-76]	; 0x4c
    9874:	e3a03000 	mov	r3, #0
    9878:	e50b3008 	str	r3, [fp, #-8]
    987c:	e24b3044 	sub	r3, fp, #68	; 0x44
    9880:	e50b3010 	str	r3, [fp, #-16]
    9884:	ea0000ac 	b	9b3c <getLength+0x2dc>
    9888:	e51b3048 	ldr	r3, [fp, #-72]	; 0x48
    988c:	e5d33000 	ldrb	r3, [r3]
    9890:	e3530025 	cmp	r3, #37	; 0x25
    9894:	0a000003 	beq	98a8 <getLength+0x48>
    9898:	e51b3008 	ldr	r3, [fp, #-8]
    989c:	e2833001 	add	r3, r3, #1
    98a0:	e50b3008 	str	r3, [fp, #-8]
    98a4:	ea0000a1 	b	9b30 <getLength+0x2d0>
    98a8:	e51b3048 	ldr	r3, [fp, #-72]	; 0x48
    98ac:	e2833001 	add	r3, r3, #1
    98b0:	e50b3048 	str	r3, [fp, #-72]	; 0x48
    98b4:	e51b3048 	ldr	r3, [fp, #-72]	; 0x48
    98b8:	e5d33000 	ldrb	r3, [r3]
    98bc:	e54b3009 	strb	r3, [fp, #-9]
    98c0:	e3a03001 	mov	r3, #1
    98c4:	e50b3014 	str	r3, [fp, #-20]
    98c8:	e3a03001 	mov	r3, #1
    98cc:	e50b3018 	str	r3, [fp, #-24]
    98d0:	ea00001b 	b	9944 <getLength+0xe4>
    98d4:	e51b3018 	ldr	r3, [fp, #-24]
    98d8:	e3530000 	cmp	r3, #0
    98dc:	0a000007 	beq	9900 <getLength+0xa0>
    98e0:	e55b3009 	ldrb	r3, [fp, #-9]
    98e4:	e2432030 	sub	r2, r3, #48	; 0x30
    98e8:	e51b3014 	ldr	r3, [fp, #-20]
    98ec:	e0030392 	mul	r3, r2, r3
    98f0:	e50b3014 	str	r3, [fp, #-20]
    98f4:	e3a03000 	mov	r3, #0
    98f8:	e50b3018 	str	r3, [fp, #-24]
    98fc:	ea00000a 	b	992c <getLength+0xcc>
    9900:	e51b2014 	ldr	r2, [fp, #-20]
    9904:	e1a03002 	mov	r3, r2
    9908:	e1a03103 	lsl	r3, r3, #2
    990c:	e0833002 	add	r3, r3, r2
    9910:	e1a03083 	lsl	r3, r3, #1
    9914:	e50b3014 	str	r3, [fp, #-20]
    9918:	e55b3009 	ldrb	r3, [fp, #-9]
    991c:	e2433030 	sub	r3, r3, #48	; 0x30
    9920:	e51b2014 	ldr	r2, [fp, #-20]
    9924:	e0823003 	add	r3, r2, r3
    9928:	e50b3014 	str	r3, [fp, #-20]
    992c:	e51b3048 	ldr	r3, [fp, #-72]	; 0x48
    9930:	e2833001 	add	r3, r3, #1
    9934:	e50b3048 	str	r3, [fp, #-72]	; 0x48
    9938:	e51b3048 	ldr	r3, [fp, #-72]	; 0x48
    993c:	e5d33000 	ldrb	r3, [r3]
    9940:	e54b3009 	strb	r3, [fp, #-9]
    9944:	e55b3009 	ldrb	r3, [fp, #-9]
    9948:	e353002f 	cmp	r3, #47	; 0x2f
    994c:	9a000002 	bls	995c <getLength+0xfc>
    9950:	e55b3009 	ldrb	r3, [fp, #-9]
    9954:	e3530039 	cmp	r3, #57	; 0x39
    9958:	9affffdd 	bls	98d4 <getLength+0x74>
    995c:	e55b3009 	ldrb	r3, [fp, #-9]
    9960:	e3530063 	cmp	r3, #99	; 0x63
    9964:	0a000011 	beq	99b0 <getLength+0x150>
    9968:	e3530063 	cmp	r3, #99	; 0x63
    996c:	ca000004 	bgt	9984 <getLength+0x124>
    9970:	e3530025 	cmp	r3, #37	; 0x25
    9974:	0a000009 	beq	99a0 <getLength+0x140>
    9978:	e3530062 	cmp	r3, #98	; 0x62
    997c:	0a000052 	beq	9acc <getLength+0x26c>
    9980:	ea00006a 	b	9b30 <getLength+0x2d0>
    9984:	e3530073 	cmp	r3, #115	; 0x73
    9988:	0a00000c 	beq	99c0 <getLength+0x160>
    998c:	e3530078 	cmp	r3, #120	; 0x78
    9990:	0a000034 	beq	9a68 <getLength+0x208>
    9994:	e3530064 	cmp	r3, #100	; 0x64
    9998:	0a000019 	beq	9a04 <getLength+0x1a4>
    999c:	ea000063 	b	9b30 <getLength+0x2d0>
    99a0:	e51b3008 	ldr	r3, [fp, #-8]
    99a4:	e2833001 	add	r3, r3, #1
    99a8:	e50b3008 	str	r3, [fp, #-8]
    99ac:	ea00005f 	b	9b30 <getLength+0x2d0>
    99b0:	e51b3008 	ldr	r3, [fp, #-8]
    99b4:	e2833001 	add	r3, r3, #1
    99b8:	e50b3008 	str	r3, [fp, #-8]
    99bc:	ea00005b 	b	9b30 <getLength+0x2d0>
    99c0:	e51b304c 	ldr	r3, [fp, #-76]	; 0x4c
    99c4:	e2832004 	add	r2, r3, #4
    99c8:	e50b204c 	str	r2, [fp, #-76]	; 0x4c
    99cc:	e5933000 	ldr	r3, [r3]
    99d0:	e50b301c 	str	r3, [fp, #-28]
    99d4:	ea000005 	b	99f0 <getLength+0x190>
    99d8:	e51b3008 	ldr	r3, [fp, #-8]
    99dc:	e2833001 	add	r3, r3, #1
    99e0:	e50b3008 	str	r3, [fp, #-8]
    99e4:	e51b301c 	ldr	r3, [fp, #-28]
    99e8:	e2833001 	add	r3, r3, #1
    99ec:	e50b301c 	str	r3, [fp, #-28]
    99f0:	e51b301c 	ldr	r3, [fp, #-28]
    99f4:	e5d33000 	ldrb	r3, [r3]
    99f8:	e3530000 	cmp	r3, #0
    99fc:	1afffff5 	bne	99d8 <getLength+0x178>
    9a00:	ea00004a 	b	9b30 <getLength+0x2d0>
    9a04:	e51b304c 	ldr	r3, [fp, #-76]	; 0x4c
    9a08:	e2832004 	add	r2, r3, #4
    9a0c:	e50b204c 	str	r2, [fp, #-76]	; 0x4c
    9a10:	e5933000 	ldr	r3, [r3]
    9a14:	e50b3020 	str	r3, [fp, #-32]
    9a18:	e24b3044 	sub	r3, fp, #68	; 0x44
    9a1c:	e1a00003 	mov	r0, r3
    9a20:	e3a01010 	mov	r1, #16
    9a24:	e51b2020 	ldr	r2, [fp, #-32]
    9a28:	e51b3014 	ldr	r3, [fp, #-20]
    9a2c:	ebffff3e 	bl	972c <intodec>
    9a30:	ea000005 	b	9a4c <getLength+0x1ec>
    9a34:	e51b3010 	ldr	r3, [fp, #-16]
    9a38:	e2833001 	add	r3, r3, #1
    9a3c:	e50b3010 	str	r3, [fp, #-16]
    9a40:	e51b3008 	ldr	r3, [fp, #-8]
    9a44:	e2833001 	add	r3, r3, #1
    9a48:	e50b3008 	str	r3, [fp, #-8]
    9a4c:	e51b3010 	ldr	r3, [fp, #-16]
    9a50:	e5d33000 	ldrb	r3, [r3]
    9a54:	e3530000 	cmp	r3, #0
    9a58:	1afffff5 	bne	9a34 <getLength+0x1d4>
    9a5c:	e24b3044 	sub	r3, fp, #68	; 0x44
    9a60:	e50b3010 	str	r3, [fp, #-16]
    9a64:	ea000031 	b	9b30 <getLength+0x2d0>
    9a68:	e51b304c 	ldr	r3, [fp, #-76]	; 0x4c
    9a6c:	e2832004 	add	r2, r3, #4
    9a70:	e50b204c 	str	r2, [fp, #-76]	; 0x4c
    9a74:	e5933000 	ldr	r3, [r3]
    9a78:	e50b3020 	str	r3, [fp, #-32]
    9a7c:	e24b3044 	sub	r3, fp, #68	; 0x44
    9a80:	e1a00003 	mov	r0, r3
    9a84:	e3a01010 	mov	r1, #16
    9a88:	e51b2020 	ldr	r2, [fp, #-32]
    9a8c:	e51b3014 	ldr	r3, [fp, #-20]
    9a90:	ebffff4b 	bl	97c4 <intohex>
    9a94:	ea000005 	b	9ab0 <getLength+0x250>
    9a98:	e51b3010 	ldr	r3, [fp, #-16]
    9a9c:	e2833001 	add	r3, r3, #1
    9aa0:	e50b3010 	str	r3, [fp, #-16]
    9aa4:	e51b3008 	ldr	r3, [fp, #-8]
    9aa8:	e2833001 	add	r3, r3, #1
    9aac:	e50b3008 	str	r3, [fp, #-8]
    9ab0:	e51b3010 	ldr	r3, [fp, #-16]
    9ab4:	e5d33000 	ldrb	r3, [r3]
    9ab8:	e3530000 	cmp	r3, #0
    9abc:	1afffff5 	bne	9a98 <getLength+0x238>
    9ac0:	e24b3044 	sub	r3, fp, #68	; 0x44
    9ac4:	e50b3010 	str	r3, [fp, #-16]
    9ac8:	ea000018 	b	9b30 <getLength+0x2d0>
    9acc:	e51b304c 	ldr	r3, [fp, #-76]	; 0x4c
    9ad0:	e2832004 	add	r2, r3, #4
    9ad4:	e50b204c 	str	r2, [fp, #-76]	; 0x4c
    9ad8:	e5933000 	ldr	r3, [r3]
    9adc:	e50b3020 	str	r3, [fp, #-32]
    9ae0:	e24b3044 	sub	r3, fp, #68	; 0x44
    9ae4:	e1a00003 	mov	r0, r3
    9ae8:	e3a01021 	mov	r1, #33	; 0x21
    9aec:	e51b2020 	ldr	r2, [fp, #-32]
    9af0:	e51b3014 	ldr	r3, [fp, #-20]
    9af4:	ebffff1f 	bl	9778 <intobin>
    9af8:	ea000005 	b	9b14 <getLength+0x2b4>
    9afc:	e51b3010 	ldr	r3, [fp, #-16]
    9b00:	e2833001 	add	r3, r3, #1
    9b04:	e50b3010 	str	r3, [fp, #-16]
    9b08:	e51b3008 	ldr	r3, [fp, #-8]
    9b0c:	e2833001 	add	r3, r3, #1
    9b10:	e50b3008 	str	r3, [fp, #-8]
    9b14:	e51b3010 	ldr	r3, [fp, #-16]
    9b18:	e5d33000 	ldrb	r3, [r3]
    9b1c:	e3530000 	cmp	r3, #0
    9b20:	1afffff5 	bne	9afc <getLength+0x29c>
    9b24:	e24b3044 	sub	r3, fp, #68	; 0x44
    9b28:	e50b3010 	str	r3, [fp, #-16]
    9b2c:	e1a00000 	nop			; (mov r0, r0)
    9b30:	e51b3048 	ldr	r3, [fp, #-72]	; 0x48
    9b34:	e2833001 	add	r3, r3, #1
    9b38:	e50b3048 	str	r3, [fp, #-72]	; 0x48
    9b3c:	e51b3048 	ldr	r3, [fp, #-72]	; 0x48
    9b40:	e5d33000 	ldrb	r3, [r3]
    9b44:	e3530000 	cmp	r3, #0
    9b48:	1affff4e 	bne	9888 <getLength+0x28>
    9b4c:	e51b3008 	ldr	r3, [fp, #-8]
    9b50:	e2833001 	add	r3, r3, #1
    9b54:	e50b3008 	str	r3, [fp, #-8]
    9b58:	e51b3008 	ldr	r3, [fp, #-8]
    9b5c:	e1a00003 	mov	r0, r3
    9b60:	e24bd004 	sub	sp, fp, #4
    9b64:	e8bd4800 	pop	{fp, lr}
    9b68:	e12fff1e 	bx	lr

00009b6c <snprintf_ap>:
    9b6c:	e92d49f0 	push	{r4, r5, r6, r7, r8, fp, lr}
    9b70:	e28db018 	add	fp, sp, #24
    9b74:	e24dd04c 	sub	sp, sp, #76	; 0x4c
    9b78:	e50b0058 	str	r0, [fp, #-88]	; 0x58
    9b7c:	e50b105c 	str	r1, [fp, #-92]	; 0x5c
    9b80:	e50b2060 	str	r2, [fp, #-96]	; 0x60
    9b84:	e50b3064 	str	r3, [fp, #-100]	; 0x64
    9b88:	e1a0300d 	mov	r3, sp
    9b8c:	e1a08003 	mov	r8, r3
    9b90:	e51b105c 	ldr	r1, [fp, #-92]	; 0x5c
    9b94:	e2413001 	sub	r3, r1, #1
    9b98:	e50b3048 	str	r3, [fp, #-72]	; 0x48
    9b9c:	e1a03001 	mov	r3, r1
    9ba0:	e1a02003 	mov	r2, r3
    9ba4:	e3a03000 	mov	r3, #0
    9ba8:	e1a07183 	lsl	r7, r3, #3
    9bac:	e1877ea2 	orr	r7, r7, r2, lsr #29
    9bb0:	e1a06182 	lsl	r6, r2, #3
    9bb4:	e1a03001 	mov	r3, r1
    9bb8:	e1a02003 	mov	r2, r3
    9bbc:	e3a03000 	mov	r3, #0
    9bc0:	e1a05183 	lsl	r5, r3, #3
    9bc4:	e1855ea2 	orr	r5, r5, r2, lsr #29
    9bc8:	e1a04182 	lsl	r4, r2, #3
    9bcc:	e1a03001 	mov	r3, r1
    9bd0:	e2833007 	add	r3, r3, #7
    9bd4:	e1a031a3 	lsr	r3, r3, #3
    9bd8:	e1a03183 	lsl	r3, r3, #3
    9bdc:	e04dd003 	sub	sp, sp, r3
    9be0:	e1a0300d 	mov	r3, sp
    9be4:	e2833000 	add	r3, r3, #0
    9be8:	e50b304c 	str	r3, [fp, #-76]	; 0x4c
    9bec:	e3a03000 	mov	r3, #0
    9bf0:	e50b3020 	str	r3, [fp, #-32]
    9bf4:	ea0000ca 	b	9f24 <snprintf_ap+0x3b8>
    9bf8:	e51b3060 	ldr	r3, [fp, #-96]	; 0x60
    9bfc:	e5d33000 	ldrb	r3, [r3]
    9c00:	e3530025 	cmp	r3, #37	; 0x25
    9c04:	0a000009 	beq	9c30 <snprintf_ap+0xc4>
    9c08:	e51b3060 	ldr	r3, [fp, #-96]	; 0x60
    9c0c:	e5d32000 	ldrb	r2, [r3]
    9c10:	e51b104c 	ldr	r1, [fp, #-76]	; 0x4c
    9c14:	e51b3020 	ldr	r3, [fp, #-32]
    9c18:	e0813003 	add	r3, r1, r3
    9c1c:	e5c32000 	strb	r2, [r3]
    9c20:	e51b3020 	ldr	r3, [fp, #-32]
    9c24:	e2833001 	add	r3, r3, #1
    9c28:	e50b3020 	str	r3, [fp, #-32]
    9c2c:	ea0000b9 	b	9f18 <snprintf_ap+0x3ac>
    9c30:	e51b3060 	ldr	r3, [fp, #-96]	; 0x60
    9c34:	e2833001 	add	r3, r3, #1
    9c38:	e50b3060 	str	r3, [fp, #-96]	; 0x60
    9c3c:	e51b3060 	ldr	r3, [fp, #-96]	; 0x60
    9c40:	e5d33000 	ldrb	r3, [r3]
    9c44:	e54b3021 	strb	r3, [fp, #-33]	; 0x21
    9c48:	e3a03001 	mov	r3, #1
    9c4c:	e50b3028 	str	r3, [fp, #-40]	; 0x28
    9c50:	e3a03001 	mov	r3, #1
    9c54:	e50b302c 	str	r3, [fp, #-44]	; 0x2c
    9c58:	ea00001b 	b	9ccc <snprintf_ap+0x160>
    9c5c:	e51b302c 	ldr	r3, [fp, #-44]	; 0x2c
    9c60:	e3530000 	cmp	r3, #0
    9c64:	0a000007 	beq	9c88 <snprintf_ap+0x11c>
    9c68:	e55b3021 	ldrb	r3, [fp, #-33]	; 0x21
    9c6c:	e2432030 	sub	r2, r3, #48	; 0x30
    9c70:	e51b3028 	ldr	r3, [fp, #-40]	; 0x28
    9c74:	e0030392 	mul	r3, r2, r3
    9c78:	e50b3028 	str	r3, [fp, #-40]	; 0x28
    9c7c:	e3a03000 	mov	r3, #0
    9c80:	e50b302c 	str	r3, [fp, #-44]	; 0x2c
    9c84:	ea00000a 	b	9cb4 <snprintf_ap+0x148>
    9c88:	e51b2028 	ldr	r2, [fp, #-40]	; 0x28
    9c8c:	e1a03002 	mov	r3, r2
    9c90:	e1a03103 	lsl	r3, r3, #2
    9c94:	e0833002 	add	r3, r3, r2
    9c98:	e1a03083 	lsl	r3, r3, #1
    9c9c:	e50b3028 	str	r3, [fp, #-40]	; 0x28
    9ca0:	e55b3021 	ldrb	r3, [fp, #-33]	; 0x21
    9ca4:	e2433030 	sub	r3, r3, #48	; 0x30
    9ca8:	e51b2028 	ldr	r2, [fp, #-40]	; 0x28
    9cac:	e0823003 	add	r3, r2, r3
    9cb0:	e50b3028 	str	r3, [fp, #-40]	; 0x28
    9cb4:	e51b3060 	ldr	r3, [fp, #-96]	; 0x60
    9cb8:	e2833001 	add	r3, r3, #1
    9cbc:	e50b3060 	str	r3, [fp, #-96]	; 0x60
    9cc0:	e51b3060 	ldr	r3, [fp, #-96]	; 0x60
    9cc4:	e5d33000 	ldrb	r3, [r3]
    9cc8:	e54b3021 	strb	r3, [fp, #-33]	; 0x21
    9ccc:	e55b3021 	ldrb	r3, [fp, #-33]	; 0x21
    9cd0:	e353002f 	cmp	r3, #47	; 0x2f
    9cd4:	9a000002 	bls	9ce4 <snprintf_ap+0x178>
    9cd8:	e55b3021 	ldrb	r3, [fp, #-33]	; 0x21
    9cdc:	e3530039 	cmp	r3, #57	; 0x39
    9ce0:	9affffdd 	bls	9c5c <snprintf_ap+0xf0>
    9ce4:	e55b3021 	ldrb	r3, [fp, #-33]	; 0x21
    9ce8:	e3530063 	cmp	r3, #99	; 0x63
    9cec:	0a000016 	beq	9d4c <snprintf_ap+0x1e0>
    9cf0:	e3530063 	cmp	r3, #99	; 0x63
    9cf4:	ca000004 	bgt	9d0c <snprintf_ap+0x1a0>
    9cf8:	e3530025 	cmp	r3, #37	; 0x25
    9cfc:	0a000009 	beq	9d28 <snprintf_ap+0x1bc>
    9d00:	e3530062 	cmp	r3, #98	; 0x62
    9d04:	0a000069 	beq	9eb0 <snprintf_ap+0x344>
    9d08:	ea000082 	b	9f18 <snprintf_ap+0x3ac>
    9d0c:	e3530073 	cmp	r3, #115	; 0x73
    9d10:	0a00001b 	beq	9d84 <snprintf_ap+0x218>
    9d14:	e3530078 	cmp	r3, #120	; 0x78
    9d18:	0a00004a 	beq	9e48 <snprintf_ap+0x2dc>
    9d1c:	e3530064 	cmp	r3, #100	; 0x64
    9d20:	0a00002e 	beq	9de0 <snprintf_ap+0x274>
    9d24:	ea00007b 	b	9f18 <snprintf_ap+0x3ac>
    9d28:	e51b204c 	ldr	r2, [fp, #-76]	; 0x4c
    9d2c:	e51b3020 	ldr	r3, [fp, #-32]
    9d30:	e0823003 	add	r3, r2, r3
    9d34:	e3a02025 	mov	r2, #37	; 0x25
    9d38:	e5c32000 	strb	r2, [r3]
    9d3c:	e51b3020 	ldr	r3, [fp, #-32]
    9d40:	e2833001 	add	r3, r3, #1
    9d44:	e50b3020 	str	r3, [fp, #-32]
    9d48:	ea000072 	b	9f18 <snprintf_ap+0x3ac>
    9d4c:	e51b3064 	ldr	r3, [fp, #-100]	; 0x64
    9d50:	e2832004 	add	r2, r3, #4
    9d54:	e50b2064 	str	r2, [fp, #-100]	; 0x64
    9d58:	e5933000 	ldr	r3, [r3]
    9d5c:	e54b304d 	strb	r3, [fp, #-77]	; 0x4d
    9d60:	e51b204c 	ldr	r2, [fp, #-76]	; 0x4c
    9d64:	e51b3020 	ldr	r3, [fp, #-32]
    9d68:	e0823003 	add	r3, r2, r3
    9d6c:	e55b204d 	ldrb	r2, [fp, #-77]	; 0x4d
    9d70:	e5c32000 	strb	r2, [r3]
    9d74:	e51b3020 	ldr	r3, [fp, #-32]
    9d78:	e2833001 	add	r3, r3, #1
    9d7c:	e50b3020 	str	r3, [fp, #-32]
    9d80:	ea000064 	b	9f18 <snprintf_ap+0x3ac>
    9d84:	e51b3064 	ldr	r3, [fp, #-100]	; 0x64
    9d88:	e2832004 	add	r2, r3, #4
    9d8c:	e50b2064 	str	r2, [fp, #-100]	; 0x64
    9d90:	e5933000 	ldr	r3, [r3]
    9d94:	e50b3030 	str	r3, [fp, #-48]	; 0x30
    9d98:	ea00000b 	b	9dcc <snprintf_ap+0x260>
    9d9c:	e51b3030 	ldr	r3, [fp, #-48]	; 0x30
    9da0:	e5d32000 	ldrb	r2, [r3]
    9da4:	e51b104c 	ldr	r1, [fp, #-76]	; 0x4c
    9da8:	e51b3020 	ldr	r3, [fp, #-32]
    9dac:	e0813003 	add	r3, r1, r3
    9db0:	e5c32000 	strb	r2, [r3]
    9db4:	e51b3020 	ldr	r3, [fp, #-32]
    9db8:	e2833001 	add	r3, r3, #1
    9dbc:	e50b3020 	str	r3, [fp, #-32]
    9dc0:	e51b3030 	ldr	r3, [fp, #-48]	; 0x30
    9dc4:	e2833001 	add	r3, r3, #1
    9dc8:	e50b3030 	str	r3, [fp, #-48]	; 0x30
    9dcc:	e51b3030 	ldr	r3, [fp, #-48]	; 0x30
    9dd0:	e5d33000 	ldrb	r3, [r3]
    9dd4:	e3530000 	cmp	r3, #0
    9dd8:	1affffef 	bne	9d9c <snprintf_ap+0x230>
    9ddc:	ea00004d 	b	9f18 <snprintf_ap+0x3ac>
    9de0:	e51b204c 	ldr	r2, [fp, #-76]	; 0x4c
    9de4:	e51b3020 	ldr	r3, [fp, #-32]
    9de8:	e0823003 	add	r3, r2, r3
    9dec:	e50b3034 	str	r3, [fp, #-52]	; 0x34
    9df0:	e51b3064 	ldr	r3, [fp, #-100]	; 0x64
    9df4:	e2832004 	add	r2, r3, #4
    9df8:	e50b2064 	str	r2, [fp, #-100]	; 0x64
    9dfc:	e5933000 	ldr	r3, [r3]
    9e00:	e50b3054 	str	r3, [fp, #-84]	; 0x54
    9e04:	e51b0034 	ldr	r0, [fp, #-52]	; 0x34
    9e08:	e3a01010 	mov	r1, #16
    9e0c:	e51b2054 	ldr	r2, [fp, #-84]	; 0x54
    9e10:	e51b3028 	ldr	r3, [fp, #-40]	; 0x28
    9e14:	ebfffe44 	bl	972c <intodec>
    9e18:	ea000005 	b	9e34 <snprintf_ap+0x2c8>
    9e1c:	e51b3034 	ldr	r3, [fp, #-52]	; 0x34
    9e20:	e2833001 	add	r3, r3, #1
    9e24:	e50b3034 	str	r3, [fp, #-52]	; 0x34
    9e28:	e51b3020 	ldr	r3, [fp, #-32]
    9e2c:	e2833001 	add	r3, r3, #1
    9e30:	e50b3020 	str	r3, [fp, #-32]
    9e34:	e51b3034 	ldr	r3, [fp, #-52]	; 0x34
    9e38:	e5d33000 	ldrb	r3, [r3]
    9e3c:	e3530000 	cmp	r3, #0
    9e40:	1afffff5 	bne	9e1c <snprintf_ap+0x2b0>
    9e44:	ea000033 	b	9f18 <snprintf_ap+0x3ac>
    9e48:	e51b204c 	ldr	r2, [fp, #-76]	; 0x4c
    9e4c:	e51b3020 	ldr	r3, [fp, #-32]
    9e50:	e0823003 	add	r3, r2, r3
    9e54:	e50b3038 	str	r3, [fp, #-56]	; 0x38
    9e58:	e51b3064 	ldr	r3, [fp, #-100]	; 0x64
    9e5c:	e2832004 	add	r2, r3, #4
    9e60:	e50b2064 	str	r2, [fp, #-100]	; 0x64
    9e64:	e5933000 	ldr	r3, [r3]
    9e68:	e50b3054 	str	r3, [fp, #-84]	; 0x54
    9e6c:	e51b0038 	ldr	r0, [fp, #-56]	; 0x38
    9e70:	e3a01010 	mov	r1, #16
    9e74:	e51b2054 	ldr	r2, [fp, #-84]	; 0x54
    9e78:	e51b3028 	ldr	r3, [fp, #-40]	; 0x28
    9e7c:	ebfffe50 	bl	97c4 <intohex>
    9e80:	ea000005 	b	9e9c <snprintf_ap+0x330>
    9e84:	e51b3038 	ldr	r3, [fp, #-56]	; 0x38
    9e88:	e2833001 	add	r3, r3, #1
    9e8c:	e50b3038 	str	r3, [fp, #-56]	; 0x38
    9e90:	e51b3020 	ldr	r3, [fp, #-32]
    9e94:	e2833001 	add	r3, r3, #1
    9e98:	e50b3020 	str	r3, [fp, #-32]
    9e9c:	e51b3038 	ldr	r3, [fp, #-56]	; 0x38
    9ea0:	e5d33000 	ldrb	r3, [r3]
    9ea4:	e3530000 	cmp	r3, #0
    9ea8:	1afffff5 	bne	9e84 <snprintf_ap+0x318>
    9eac:	ea000019 	b	9f18 <snprintf_ap+0x3ac>
    9eb0:	e51b204c 	ldr	r2, [fp, #-76]	; 0x4c
    9eb4:	e51b3020 	ldr	r3, [fp, #-32]
    9eb8:	e0823003 	add	r3, r2, r3
    9ebc:	e50b303c 	str	r3, [fp, #-60]	; 0x3c
    9ec0:	e51b3064 	ldr	r3, [fp, #-100]	; 0x64
    9ec4:	e2832004 	add	r2, r3, #4
    9ec8:	e50b2064 	str	r2, [fp, #-100]	; 0x64
    9ecc:	e5933000 	ldr	r3, [r3]
    9ed0:	e50b3054 	str	r3, [fp, #-84]	; 0x54
    9ed4:	e51b003c 	ldr	r0, [fp, #-60]	; 0x3c
    9ed8:	e3a01021 	mov	r1, #33	; 0x21
    9edc:	e51b2054 	ldr	r2, [fp, #-84]	; 0x54
    9ee0:	e51b3028 	ldr	r3, [fp, #-40]	; 0x28
    9ee4:	ebfffe23 	bl	9778 <intobin>
    9ee8:	ea000005 	b	9f04 <snprintf_ap+0x398>
    9eec:	e51b303c 	ldr	r3, [fp, #-60]	; 0x3c
    9ef0:	e2833001 	add	r3, r3, #1
    9ef4:	e50b303c 	str	r3, [fp, #-60]	; 0x3c
    9ef8:	e51b3020 	ldr	r3, [fp, #-32]
    9efc:	e2833001 	add	r3, r3, #1
    9f00:	e50b3020 	str	r3, [fp, #-32]
    9f04:	e51b303c 	ldr	r3, [fp, #-60]	; 0x3c
    9f08:	e5d33000 	ldrb	r3, [r3]
    9f0c:	e3530000 	cmp	r3, #0
    9f10:	1afffff5 	bne	9eec <snprintf_ap+0x380>
    9f14:	e1a00000 	nop			; (mov r0, r0)
    9f18:	e51b3060 	ldr	r3, [fp, #-96]	; 0x60
    9f1c:	e2833001 	add	r3, r3, #1
    9f20:	e50b3060 	str	r3, [fp, #-96]	; 0x60
    9f24:	e51b3060 	ldr	r3, [fp, #-96]	; 0x60
    9f28:	e5d33000 	ldrb	r3, [r3]
    9f2c:	e3530000 	cmp	r3, #0
    9f30:	1affff30 	bne	9bf8 <snprintf_ap+0x8c>
    9f34:	e51b204c 	ldr	r2, [fp, #-76]	; 0x4c
    9f38:	e51b3020 	ldr	r3, [fp, #-32]
    9f3c:	e0823003 	add	r3, r2, r3
    9f40:	e3a02000 	mov	r2, #0
    9f44:	e5c32000 	strb	r2, [r3]
    9f48:	e3a03000 	mov	r3, #0
    9f4c:	e50b3040 	str	r3, [fp, #-64]	; 0x40
    9f50:	e51b304c 	ldr	r3, [fp, #-76]	; 0x4c
    9f54:	e50b3044 	str	r3, [fp, #-68]	; 0x44
    9f58:	ea00000b 	b	9f8c <snprintf_ap+0x420>
    9f5c:	e51b3040 	ldr	r3, [fp, #-64]	; 0x40
    9f60:	e51b2058 	ldr	r2, [fp, #-88]	; 0x58
    9f64:	e0823003 	add	r3, r2, r3
    9f68:	e51b2044 	ldr	r2, [fp, #-68]	; 0x44
    9f6c:	e5d22000 	ldrb	r2, [r2]
    9f70:	e5c32000 	strb	r2, [r3]
    9f74:	e51b3044 	ldr	r3, [fp, #-68]	; 0x44
    9f78:	e2833001 	add	r3, r3, #1
    9f7c:	e50b3044 	str	r3, [fp, #-68]	; 0x44
    9f80:	e51b3040 	ldr	r3, [fp, #-64]	; 0x40
    9f84:	e2833001 	add	r3, r3, #1
    9f88:	e50b3040 	str	r3, [fp, #-64]	; 0x40
    9f8c:	e51b3044 	ldr	r3, [fp, #-68]	; 0x44
    9f90:	e5d33000 	ldrb	r3, [r3]
    9f94:	e3530000 	cmp	r3, #0
    9f98:	0a000004 	beq	9fb0 <snprintf_ap+0x444>
    9f9c:	e51b305c 	ldr	r3, [fp, #-92]	; 0x5c
    9fa0:	e2432001 	sub	r2, r3, #1
    9fa4:	e51b3040 	ldr	r3, [fp, #-64]	; 0x40
    9fa8:	e1520003 	cmp	r2, r3
    9fac:	caffffea 	bgt	9f5c <snprintf_ap+0x3f0>
    9fb0:	ea000005 	b	9fcc <snprintf_ap+0x460>
    9fb4:	e51b3040 	ldr	r3, [fp, #-64]	; 0x40
    9fb8:	e2833001 	add	r3, r3, #1
    9fbc:	e50b3040 	str	r3, [fp, #-64]	; 0x40
    9fc0:	e51b3044 	ldr	r3, [fp, #-68]	; 0x44
    9fc4:	e2833001 	add	r3, r3, #1
    9fc8:	e50b3044 	str	r3, [fp, #-68]	; 0x44
    9fcc:	e51b3044 	ldr	r3, [fp, #-68]	; 0x44
    9fd0:	e5d33000 	ldrb	r3, [r3]
    9fd4:	e3530000 	cmp	r3, #0
    9fd8:	1afffff5 	bne	9fb4 <snprintf_ap+0x448>
    9fdc:	e51b3040 	ldr	r3, [fp, #-64]	; 0x40
    9fe0:	e51b2058 	ldr	r2, [fp, #-88]	; 0x58
    9fe4:	e0823003 	add	r3, r2, r3
    9fe8:	e3a02000 	mov	r2, #0
    9fec:	e5c32000 	strb	r2, [r3]
    9ff0:	e51b3040 	ldr	r3, [fp, #-64]	; 0x40
    9ff4:	e2833001 	add	r3, r3, #1
    9ff8:	e50b3040 	str	r3, [fp, #-64]	; 0x40
    9ffc:	e51b3040 	ldr	r3, [fp, #-64]	; 0x40
    a000:	e1a0d008 	mov	sp, r8
    a004:	e1a00003 	mov	r0, r3
    a008:	e24bd018 	sub	sp, fp, #24
    a00c:	e8bd49f0 	pop	{r4, r5, r6, r7, r8, fp, lr}
    a010:	e12fff1e 	bx	lr

0000a014 <printf>:
    a014:	e92d000f 	push	{r0, r1, r2, r3}
    a018:	e92d49f0 	push	{r4, r5, r6, r7, r8, fp, lr}
    a01c:	e28db018 	add	fp, sp, #24
    a020:	e24dd01c 	sub	sp, sp, #28
    a024:	e1a0300d 	mov	r3, sp
    a028:	e1a08003 	mov	r8, r3
    a02c:	e28b3008 	add	r3, fp, #8
    a030:	e50b3030 	str	r3, [fp, #-48]	; 0x30
    a034:	e59b0004 	ldr	r0, [fp, #4]
    a038:	e51b1030 	ldr	r1, [fp, #-48]	; 0x30
    a03c:	ebfffe07 	bl	9860 <getLength>
    a040:	e50b0024 	str	r0, [fp, #-36]	; 0x24
    a044:	e51b1024 	ldr	r1, [fp, #-36]	; 0x24
    a048:	e2413001 	sub	r3, r1, #1
    a04c:	e50b3028 	str	r3, [fp, #-40]	; 0x28
    a050:	e1a03001 	mov	r3, r1
    a054:	e1a02003 	mov	r2, r3
    a058:	e3a03000 	mov	r3, #0
    a05c:	e1a07183 	lsl	r7, r3, #3
    a060:	e1877ea2 	orr	r7, r7, r2, lsr #29
    a064:	e1a06182 	lsl	r6, r2, #3
    a068:	e1a03001 	mov	r3, r1
    a06c:	e1a02003 	mov	r2, r3
    a070:	e3a03000 	mov	r3, #0
    a074:	e1a05183 	lsl	r5, r3, #3
    a078:	e1855ea2 	orr	r5, r5, r2, lsr #29
    a07c:	e1a04182 	lsl	r4, r2, #3
    a080:	e1a03001 	mov	r3, r1
    a084:	e2833007 	add	r3, r3, #7
    a088:	e1a031a3 	lsr	r3, r3, #3
    a08c:	e1a03183 	lsl	r3, r3, #3
    a090:	e04dd003 	sub	sp, sp, r3
    a094:	e1a0300d 	mov	r3, sp
    a098:	e2833000 	add	r3, r3, #0
    a09c:	e50b302c 	str	r3, [fp, #-44]	; 0x2c
    a0a0:	e51b302c 	ldr	r3, [fp, #-44]	; 0x2c
    a0a4:	e3a02000 	mov	r2, #0
    a0a8:	e5c32000 	strb	r2, [r3]
    a0ac:	e51b302c 	ldr	r3, [fp, #-44]	; 0x2c
    a0b0:	e1a00003 	mov	r0, r3
    a0b4:	e51b1024 	ldr	r1, [fp, #-36]	; 0x24
    a0b8:	e59b2004 	ldr	r2, [fp, #4]
    a0bc:	e51b3030 	ldr	r3, [fp, #-48]	; 0x30
    a0c0:	ebfffea9 	bl	9b6c <snprintf_ap>
    a0c4:	e51b302c 	ldr	r3, [fp, #-44]	; 0x2c
    a0c8:	e50b3020 	str	r3, [fp, #-32]
    a0cc:	ea000006 	b	a0ec <printf+0xd8>
    a0d0:	e51b3020 	ldr	r3, [fp, #-32]
    a0d4:	e5d33000 	ldrb	r3, [r3]
    a0d8:	e1a00003 	mov	r0, r3
    a0dc:	ebfffc7f 	bl	92e0 <uart_putc>
    a0e0:	e51b3020 	ldr	r3, [fp, #-32]
    a0e4:	e2833001 	add	r3, r3, #1
    a0e8:	e50b3020 	str	r3, [fp, #-32]
    a0ec:	e51b3020 	ldr	r3, [fp, #-32]
    a0f0:	e5d33000 	ldrb	r3, [r3]
    a0f4:	e3530000 	cmp	r3, #0
    a0f8:	1afffff4 	bne	a0d0 <printf+0xbc>
    a0fc:	e51b3024 	ldr	r3, [fp, #-36]	; 0x24
    a100:	e1a0d008 	mov	sp, r8
    a104:	e1a00003 	mov	r0, r3
    a108:	e24bd018 	sub	sp, fp, #24
    a10c:	e8bd49f0 	pop	{r4, r5, r6, r7, r8, fp, lr}
    a110:	e28dd010 	add	sp, sp, #16
    a114:	e12fff1e 	bx	lr

0000a118 <console_printf>:
    a118:	e92d000f 	push	{r0, r1, r2, r3}
    a11c:	e92d49f0 	push	{r4, r5, r6, r7, r8, fp, lr}
    a120:	e28db018 	add	fp, sp, #24
    a124:	e24dd014 	sub	sp, sp, #20
    a128:	e1a0300d 	mov	r3, sp
    a12c:	e1a08003 	mov	r8, r3
    a130:	e28b3008 	add	r3, fp, #8
    a134:	e50b302c 	str	r3, [fp, #-44]	; 0x2c
    a138:	e59b0004 	ldr	r0, [fp, #4]
    a13c:	e51b102c 	ldr	r1, [fp, #-44]	; 0x2c
    a140:	ebfffdc6 	bl	9860 <getLength>
    a144:	e50b0020 	str	r0, [fp, #-32]
    a148:	e51b1020 	ldr	r1, [fp, #-32]
    a14c:	e2413001 	sub	r3, r1, #1
    a150:	e50b3024 	str	r3, [fp, #-36]	; 0x24
    a154:	e1a03001 	mov	r3, r1
    a158:	e1a02003 	mov	r2, r3
    a15c:	e3a03000 	mov	r3, #0
    a160:	e1a07183 	lsl	r7, r3, #3
    a164:	e1877ea2 	orr	r7, r7, r2, lsr #29
    a168:	e1a06182 	lsl	r6, r2, #3
    a16c:	e1a03001 	mov	r3, r1
    a170:	e1a02003 	mov	r2, r3
    a174:	e3a03000 	mov	r3, #0
    a178:	e1a05183 	lsl	r5, r3, #3
    a17c:	e1855ea2 	orr	r5, r5, r2, lsr #29
    a180:	e1a04182 	lsl	r4, r2, #3
    a184:	e1a03001 	mov	r3, r1
    a188:	e2833007 	add	r3, r3, #7
    a18c:	e1a031a3 	lsr	r3, r3, #3
    a190:	e1a03183 	lsl	r3, r3, #3
    a194:	e04dd003 	sub	sp, sp, r3
    a198:	e1a0300d 	mov	r3, sp
    a19c:	e2833000 	add	r3, r3, #0
    a1a0:	e50b3028 	str	r3, [fp, #-40]	; 0x28
    a1a4:	e51b3028 	ldr	r3, [fp, #-40]	; 0x28
    a1a8:	e3a02000 	mov	r2, #0
    a1ac:	e5c32000 	strb	r2, [r3]
    a1b0:	e51b3028 	ldr	r3, [fp, #-40]	; 0x28
    a1b4:	e1a00003 	mov	r0, r3
    a1b8:	e51b1020 	ldr	r1, [fp, #-32]
    a1bc:	e59b2004 	ldr	r2, [fp, #4]
    a1c0:	e51b302c 	ldr	r3, [fp, #-44]	; 0x2c
    a1c4:	ebfffe68 	bl	9b6c <snprintf_ap>
    a1c8:	e51b3028 	ldr	r3, [fp, #-40]	; 0x28
    a1cc:	e1a0d008 	mov	sp, r8
    a1d0:	e1a00003 	mov	r0, r3
    a1d4:	e24bd018 	sub	sp, fp, #24
    a1d8:	e8bd49f0 	pop	{r4, r5, r6, r7, r8, fp, lr}
    a1dc:	e28dd010 	add	sp, sp, #16
    a1e0:	e12fff1e 	bx	lr

0000a1e4 <__aeabi_uidiv>:
    a1e4:	e52db004 	push	{fp}		; (str fp, [sp, #-4]!)
    a1e8:	e28db000 	add	fp, sp, #0
    a1ec:	e24dd014 	sub	sp, sp, #20
    a1f0:	e50b0010 	str	r0, [fp, #-16]
    a1f4:	e50b1014 	str	r1, [fp, #-20]
    a1f8:	e3a03000 	mov	r3, #0
    a1fc:	e50b3008 	str	r3, [fp, #-8]
    a200:	ea000006 	b	a220 <__aeabi_uidiv+0x3c>
    a204:	e51b3008 	ldr	r3, [fp, #-8]
    a208:	e2833001 	add	r3, r3, #1
    a20c:	e50b3008 	str	r3, [fp, #-8]
    a210:	e51b2010 	ldr	r2, [fp, #-16]
    a214:	e51b3014 	ldr	r3, [fp, #-20]
    a218:	e0633002 	rsb	r3, r3, r2
    a21c:	e50b3010 	str	r3, [fp, #-16]
    a220:	e51b2010 	ldr	r2, [fp, #-16]
    a224:	e51b3014 	ldr	r3, [fp, #-20]
    a228:	e1520003 	cmp	r2, r3
    a22c:	8afffff4 	bhi	a204 <__aeabi_uidiv+0x20>
    a230:	e51b3008 	ldr	r3, [fp, #-8]
    a234:	e1a00003 	mov	r0, r3
    a238:	e24bd000 	sub	sp, fp, #0
    a23c:	e49db004 	pop	{fp}		; (ldr fp, [sp], #4)
    a240:	e12fff1e 	bx	lr

0000a244 <strcmp>:
    a244:	e52db004 	push	{fp}		; (str fp, [sp, #-4]!)
    a248:	e28db000 	add	fp, sp, #0
    a24c:	e24dd00c 	sub	sp, sp, #12
    a250:	e50b0008 	str	r0, [fp, #-8]
    a254:	e50b100c 	str	r1, [fp, #-12]
    a258:	ea000013 	b	a2ac <strcmp+0x68>
    a25c:	e51b3008 	ldr	r3, [fp, #-8]
    a260:	e5d32000 	ldrb	r2, [r3]
    a264:	e51b300c 	ldr	r3, [fp, #-12]
    a268:	e5d33000 	ldrb	r3, [r3]
    a26c:	e1520003 	cmp	r2, r3
    a270:	1a000006 	bne	a290 <strcmp+0x4c>
    a274:	e51b3008 	ldr	r3, [fp, #-8]
    a278:	e2833001 	add	r3, r3, #1
    a27c:	e50b3008 	str	r3, [fp, #-8]
    a280:	e51b300c 	ldr	r3, [fp, #-12]
    a284:	e2833001 	add	r3, r3, #1
    a288:	e50b300c 	str	r3, [fp, #-12]
    a28c:	ea000006 	b	a2ac <strcmp+0x68>
    a290:	e51b300c 	ldr	r3, [fp, #-12]
    a294:	e5d33000 	ldrb	r3, [r3]
    a298:	e1a02003 	mov	r2, r3
    a29c:	e51b3008 	ldr	r3, [fp, #-8]
    a2a0:	e5d33000 	ldrb	r3, [r3]
    a2a4:	e0633002 	rsb	r3, r3, r2
    a2a8:	ea00000d 	b	a2e4 <strcmp+0xa0>
    a2ac:	e51b3008 	ldr	r3, [fp, #-8]
    a2b0:	e5d33000 	ldrb	r3, [r3]
    a2b4:	e3530000 	cmp	r3, #0
    a2b8:	0a000003 	beq	a2cc <strcmp+0x88>
    a2bc:	e51b300c 	ldr	r3, [fp, #-12]
    a2c0:	e5d33000 	ldrb	r3, [r3]
    a2c4:	e3530000 	cmp	r3, #0
    a2c8:	1affffe3 	bne	a25c <strcmp+0x18>
    a2cc:	e51b300c 	ldr	r3, [fp, #-12]
    a2d0:	e5d33000 	ldrb	r3, [r3]
    a2d4:	e1a02003 	mov	r2, r3
    a2d8:	e51b3008 	ldr	r3, [fp, #-8]
    a2dc:	e5d33000 	ldrb	r3, [r3]
    a2e0:	e0633002 	rsb	r3, r3, r2
    a2e4:	e1a00003 	mov	r0, r3
    a2e8:	e24bd000 	sub	sp, fp, #0
    a2ec:	e49db004 	pop	{fp}		; (ldr fp, [sp], #4)
    a2f0:	e12fff1e 	bx	lr

0000a2f4 <strcpy>:
    a2f4:	e52db004 	push	{fp}		; (str fp, [sp, #-4]!)
    a2f8:	e28db000 	add	fp, sp, #0
    a2fc:	e24dd00c 	sub	sp, sp, #12
    a300:	e50b0008 	str	r0, [fp, #-8]
    a304:	e50b100c 	str	r1, [fp, #-12]
    a308:	ea000009 	b	a334 <strcpy+0x40>
    a30c:	e51b300c 	ldr	r3, [fp, #-12]
    a310:	e5d32000 	ldrb	r2, [r3]
    a314:	e51b3008 	ldr	r3, [fp, #-8]
    a318:	e5c32000 	strb	r2, [r3]
    a31c:	e51b3008 	ldr	r3, [fp, #-8]
    a320:	e2833001 	add	r3, r3, #1
    a324:	e50b3008 	str	r3, [fp, #-8]
    a328:	e51b300c 	ldr	r3, [fp, #-12]
    a32c:	e2833001 	add	r3, r3, #1
    a330:	e50b300c 	str	r3, [fp, #-12]
    a334:	e51b300c 	ldr	r3, [fp, #-12]
    a338:	e5d33000 	ldrb	r3, [r3]
    a33c:	e3530000 	cmp	r3, #0
    a340:	1afffff1 	bne	a30c <strcpy+0x18>
    a344:	e51b3008 	ldr	r3, [fp, #-8]
    a348:	e3a02000 	mov	r2, #0
    a34c:	e5c32000 	strb	r2, [r3]
    a350:	e51b3008 	ldr	r3, [fp, #-8]
    a354:	e1a00003 	mov	r0, r3
    a358:	e24bd000 	sub	sp, fp, #0
    a35c:	e49db004 	pop	{fp}		; (ldr fp, [sp], #4)
    a360:	e12fff1e 	bx	lr

0000a364 <imgcpy>:
    a364:	e52db004 	push	{fp}		; (str fp, [sp, #-4]!)
    a368:	e28db000 	add	fp, sp, #0
    a36c:	e24dd01c 	sub	sp, sp, #28
    a370:	e50b0010 	str	r0, [fp, #-16]
    a374:	e50b1014 	str	r1, [fp, #-20]
    a378:	e50b2018 	str	r2, [fp, #-24]
    a37c:	e3a03000 	mov	r3, #0
    a380:	e50b3008 	str	r3, [fp, #-8]
    a384:	ea00000c 	b	a3bc <imgcpy+0x58>
    a388:	e51b3014 	ldr	r3, [fp, #-20]
    a38c:	e5d32000 	ldrb	r2, [r3]
    a390:	e51b3010 	ldr	r3, [fp, #-16]
    a394:	e5c32000 	strb	r2, [r3]
    a398:	e51b3010 	ldr	r3, [fp, #-16]
    a39c:	e2833001 	add	r3, r3, #1
    a3a0:	e50b3010 	str	r3, [fp, #-16]
    a3a4:	e51b3014 	ldr	r3, [fp, #-20]
    a3a8:	e2833001 	add	r3, r3, #1
    a3ac:	e50b3014 	str	r3, [fp, #-20]
    a3b0:	e51b3008 	ldr	r3, [fp, #-8]
    a3b4:	e2833001 	add	r3, r3, #1
    a3b8:	e50b3008 	str	r3, [fp, #-8]
    a3bc:	e51b2008 	ldr	r2, [fp, #-8]
    a3c0:	e51b3018 	ldr	r3, [fp, #-24]
    a3c4:	e1520003 	cmp	r2, r3
    a3c8:	daffffee 	ble	a388 <imgcpy+0x24>
    a3cc:	e51b3010 	ldr	r3, [fp, #-16]
    a3d0:	e1a00003 	mov	r0, r3
    a3d4:	e24bd000 	sub	sp, fp, #0
    a3d8:	e49db004 	pop	{fp}		; (ldr fp, [sp], #4)
    a3dc:	e12fff1e 	bx	lr

0000a3e0 <_table>:
    a3e0:	e59ff030 	ldr	pc, [pc, #48]	; a418 <_reset_asm>
    a3e4:	e59ff030 	ldr	pc, [pc, #48]	; a41c <_undefined_instruction_asm>
    a3e8:	e59ff030 	ldr	pc, [pc, #48]	; a420 <_software_interrupt_asm>
    a3ec:	e59ff030 	ldr	pc, [pc, #48]	; a424 <_prefetch_abort_asm>
    a3f0:	e59ff030 	ldr	pc, [pc, #48]	; a428 <_data_abort_asm>
    a3f4:	e59ff01c 	ldr	pc, [pc, #28]	; a418 <_reset_asm>
    a3f8:	e59ff02c 	ldr	pc, [pc, #44]	; a42c <_interrupt_asm>

0000a3fc <fast_interrupt_asm>:
    a3fc:	e24ee004 	sub	lr, lr, #4
    a400:	e52de004 	push	{lr}		; (str lr, [sp, #-4]!)
    a404:	e92d1fff 	push	{r0, r1, r2, r3, r4, r5, r6, r7, r8, r9, sl, fp, ip}
    a408:	e1a0000e 	mov	r0, lr
    a40c:	eb000038 	bl	a4f4 <fast_interrupt_vector>
    a410:	e8bd1fff 	pop	{r0, r1, r2, r3, r4, r5, r6, r7, r8, r9, sl, fp, ip}
    a414:	e8fd8000 	ldm	sp!, {pc}^

0000a418 <_reset_asm>:
    a418:	0000a44c 	andeq	sl, r0, ip, asr #8

0000a41c <_undefined_instruction_asm>:
    a41c:	0000a468 	andeq	sl, r0, r8, ror #8

0000a420 <_software_interrupt_asm>:
    a420:	0000a484 	andeq	sl, r0, r4, lsl #9

0000a424 <_prefetch_abort_asm>:
    a424:	0000a4a0 	andeq	sl, r0, r0, lsr #9

0000a428 <_data_abort_asm>:
    a428:	0000a4bc 			; <UNDEFINED> instruction: 0x0000a4bc

0000a42c <_interrupt_asm>:
    a42c:	0000a430 	andeq	sl, r0, r0, lsr r4

0000a430 <_table_end>:
    a430:	e24ee004 	sub	lr, lr, #4
    a434:	e52de004 	push	{lr}		; (str lr, [sp, #-4]!)
    a438:	e92d1fff 	push	{r0, r1, r2, r3, r4, r5, r6, r7, r8, r9, sl, fp, ip}
    a43c:	e1a0000e 	mov	r0, lr
    a440:	eb000024 	bl	a4d8 <interrupt_vector>
    a444:	e8bd1fff 	pop	{r0, r1, r2, r3, r4, r5, r6, r7, r8, r9, sl, fp, ip}
    a448:	e8fd8000 	ldm	sp!, {pc}^

0000a44c <reset_asm>:
    a44c:	e24ee004 	sub	lr, lr, #4
    a450:	e52de004 	push	{lr}		; (str lr, [sp, #-4]!)
    a454:	e92d1fff 	push	{r0, r1, r2, r3, r4, r5, r6, r7, r8, r9, sl, fp, ip}
    a458:	e1a0000e 	mov	r0, lr
    a45c:	eb000032 	bl	a52c <reset_vector>
    a460:	e8bd1fff 	pop	{r0, r1, r2, r3, r4, r5, r6, r7, r8, r9, sl, fp, ip}
    a464:	e8fd8000 	ldm	sp!, {pc}^

0000a468 <undefined_instruction_asm>:
    a468:	e24ee004 	sub	lr, lr, #4
    a46c:	e52de004 	push	{lr}		; (str lr, [sp, #-4]!)
    a470:	e92d1fff 	push	{r0, r1, r2, r3, r4, r5, r6, r7, r8, r9, sl, fp, ip}
    a474:	e1a0000e 	mov	r0, lr
    a478:	eb000032 	bl	a548 <undefined_instruction_vector>
    a47c:	e8bd1fff 	pop	{r0, r1, r2, r3, r4, r5, r6, r7, r8, r9, sl, fp, ip}
    a480:	e8fd8000 	ldm	sp!, {pc}^

0000a484 <software_interrupt_asm>:
    a484:	e24ee004 	sub	lr, lr, #4
    a488:	e52de004 	push	{lr}		; (str lr, [sp, #-4]!)
    a48c:	e92d1fff 	push	{r0, r1, r2, r3, r4, r5, r6, r7, r8, r9, sl, fp, ip}
    a490:	e1a0000e 	mov	r0, lr
    a494:	eb00001d 	bl	a510 <software_interrupt_vector>
    a498:	e8bd1fff 	pop	{r0, r1, r2, r3, r4, r5, r6, r7, r8, r9, sl, fp, ip}
    a49c:	e8fd8000 	ldm	sp!, {pc}^

0000a4a0 <prefetch_abort_asm>:
    a4a0:	e24ee004 	sub	lr, lr, #4
    a4a4:	e52de004 	push	{lr}		; (str lr, [sp, #-4]!)
    a4a8:	e92d1fff 	push	{r0, r1, r2, r3, r4, r5, r6, r7, r8, r9, sl, fp, ip}
    a4ac:	e1a0000e 	mov	r0, lr
    a4b0:	eb00002b 	bl	a564 <prefetch_abort_vector>
    a4b4:	e8bd1fff 	pop	{r0, r1, r2, r3, r4, r5, r6, r7, r8, r9, sl, fp, ip}
    a4b8:	e8fd8000 	ldm	sp!, {pc}^

0000a4bc <data_abort_asm>:
    a4bc:	e24ee004 	sub	lr, lr, #4
    a4c0:	e52de004 	push	{lr}		; (str lr, [sp, #-4]!)
    a4c4:	e92d1fff 	push	{r0, r1, r2, r3, r4, r5, r6, r7, r8, r9, sl, fp, ip}
    a4c8:	e1a0000e 	mov	r0, lr
    a4cc:	eb00002b 	bl	a580 <data_abort_vector>
    a4d0:	e8bd1fff 	pop	{r0, r1, r2, r3, r4, r5, r6, r7, r8, r9, sl, fp, ip}
    a4d4:	e8fd8000 	ldm	sp!, {pc}^

0000a4d8 <interrupt_vector>:
    a4d8:	e52db004 	push	{fp}		; (str fp, [sp, #-4]!)
    a4dc:	e28db000 	add	fp, sp, #0
    a4e0:	e24dd00c 	sub	sp, sp, #12
    a4e4:	e50b0008 	str	r0, [fp, #-8]
    a4e8:	e24bd000 	sub	sp, fp, #0
    a4ec:	e49db004 	pop	{fp}		; (ldr fp, [sp], #4)
    a4f0:	e12fff1e 	bx	lr

0000a4f4 <fast_interrupt_vector>:
    a4f4:	e52db004 	push	{fp}		; (str fp, [sp, #-4]!)
    a4f8:	e28db000 	add	fp, sp, #0
    a4fc:	e24dd00c 	sub	sp, sp, #12
    a500:	e50b0008 	str	r0, [fp, #-8]
    a504:	e24bd000 	sub	sp, fp, #0
    a508:	e49db004 	pop	{fp}		; (ldr fp, [sp], #4)
    a50c:	e12fff1e 	bx	lr

0000a510 <software_interrupt_vector>:
    a510:	e52db004 	push	{fp}		; (str fp, [sp, #-4]!)
    a514:	e28db000 	add	fp, sp, #0
    a518:	e24dd00c 	sub	sp, sp, #12
    a51c:	e50b0008 	str	r0, [fp, #-8]
    a520:	e24bd000 	sub	sp, fp, #0
    a524:	e49db004 	pop	{fp}		; (ldr fp, [sp], #4)
    a528:	e12fff1e 	bx	lr

0000a52c <reset_vector>:
    a52c:	e52db004 	push	{fp}		; (str fp, [sp, #-4]!)
    a530:	e28db000 	add	fp, sp, #0
    a534:	e24dd00c 	sub	sp, sp, #12
    a538:	e50b0008 	str	r0, [fp, #-8]
    a53c:	e24bd000 	sub	sp, fp, #0
    a540:	e49db004 	pop	{fp}		; (ldr fp, [sp], #4)
    a544:	e12fff1e 	bx	lr

0000a548 <undefined_instruction_vector>:
    a548:	e52db004 	push	{fp}		; (str fp, [sp, #-4]!)
    a54c:	e28db000 	add	fp, sp, #0
    a550:	e24dd00c 	sub	sp, sp, #12
    a554:	e50b0008 	str	r0, [fp, #-8]
    a558:	e24bd000 	sub	sp, fp, #0
    a55c:	e49db004 	pop	{fp}		; (ldr fp, [sp], #4)
    a560:	e12fff1e 	bx	lr

0000a564 <prefetch_abort_vector>:
    a564:	e52db004 	push	{fp}		; (str fp, [sp, #-4]!)
    a568:	e28db000 	add	fp, sp, #0
    a56c:	e24dd00c 	sub	sp, sp, #12
    a570:	e50b0008 	str	r0, [fp, #-8]
    a574:	e24bd000 	sub	sp, fp, #0
    a578:	e49db004 	pop	{fp}		; (ldr fp, [sp], #4)
    a57c:	e12fff1e 	bx	lr

0000a580 <data_abort_vector>:
    a580:	e52db004 	push	{fp}		; (str fp, [sp, #-4]!)
    a584:	e28db000 	add	fp, sp, #0
    a588:	e24dd00c 	sub	sp, sp, #12
    a58c:	e50b0008 	str	r0, [fp, #-8]
    a590:	e24bd000 	sub	sp, fp, #0
    a594:	e49db004 	pop	{fp}		; (ldr fp, [sp], #4)
    a598:	e12fff1e 	bx	lr

0000a59c <spi_gpio_init>:
    a59c:	e92d4800 	push	{fp, lr}
    a5a0:	e28db004 	add	fp, sp, #4
    a5a4:	e3a00008 	mov	r0, #8
    a5a8:	e3a01004 	mov	r1, #4
    a5ac:	ebfff904 	bl	89c4 <gpio_set_function>
    a5b0:	e3a00007 	mov	r0, #7
    a5b4:	e3a01004 	mov	r1, #4
    a5b8:	ebfff901 	bl	89c4 <gpio_set_function>
    a5bc:	e3a0000a 	mov	r0, #10
    a5c0:	e3a01004 	mov	r1, #4
    a5c4:	ebfff8fe 	bl	89c4 <gpio_set_function>
    a5c8:	e3a00009 	mov	r0, #9
    a5cc:	e3a01004 	mov	r1, #4
    a5d0:	ebfff8fb 	bl	89c4 <gpio_set_function>
    a5d4:	e3a0000b 	mov	r0, #11
    a5d8:	e3a01004 	mov	r1, #4
    a5dc:	ebfff8f8 	bl	89c4 <gpio_set_function>
    a5e0:	e24bd004 	sub	sp, fp, #4
    a5e4:	e8bd4800 	pop	{fp, lr}
    a5e8:	e12fff1e 	bx	lr

0000a5ec <spi_init>:
    a5ec:	e92d4800 	push	{fp, lr}
    a5f0:	e28db004 	add	fp, sp, #4
    a5f4:	e24dd008 	sub	sp, sp, #8
    a5f8:	e50b0008 	str	r0, [fp, #-8]
    a5fc:	e50b100c 	str	r1, [fp, #-12]
    a600:	ebfffad5 	bl	915c <system_memory_write_barrier>
    a604:	ebffffe4 	bl	a59c <spi_gpio_init>
    a608:	e51b3008 	ldr	r3, [fp, #-8]
    a60c:	e3530001 	cmp	r3, #1
    a610:	9a000001 	bls	a61c <spi_init+0x30>
    a614:	e3e03000 	mvn	r3, #0
    a618:	ea0000b3 	b	a8ec <spi_init+0x300>
    a61c:	e51b300c 	ldr	r3, [fp, #-12]
    a620:	e3530001 	cmp	r3, #1
    a624:	9a000001 	bls	a630 <spi_init+0x44>
    a628:	e3e03000 	mvn	r3, #0
    a62c:	ea0000ae 	b	a8ec <spi_init+0x300>
    a630:	e59f32c4 	ldr	r3, [pc, #708]	; a8fc <spi_init+0x310>
    a634:	e5932000 	ldr	r2, [r3]
    a638:	e5923008 	ldr	r3, [r2, #8]
    a63c:	e1a03803 	lsl	r3, r3, #16
    a640:	e1a03823 	lsr	r3, r3, #16
    a644:	e5823008 	str	r3, [r2, #8]
    a648:	e59f32ac 	ldr	r3, [pc, #684]	; a8fc <spi_init+0x310>
    a64c:	e5932000 	ldr	r2, [r3]
    a650:	e5923008 	ldr	r3, [r2, #8]
    a654:	e3c33cef 	bic	r3, r3, #61184	; 0xef00
    a658:	e3c330ff 	bic	r3, r3, #255	; 0xff
    a65c:	e3833a01 	orr	r3, r3, #4096	; 0x1000
    a660:	e5823008 	str	r3, [r2, #8]
    a664:	e59f3290 	ldr	r3, [pc, #656]	; a8fc <spi_init+0x310>
    a668:	e5932000 	ldr	r2, [r3]
    a66c:	e592300c 	ldr	r3, [r2, #12]
    a670:	e1a03803 	lsl	r3, r3, #16
    a674:	e1a03823 	lsr	r3, r3, #16
    a678:	e582300c 	str	r3, [r2, #12]
    a67c:	e59f3278 	ldr	r3, [pc, #632]	; a8fc <spi_init+0x310>
    a680:	e5932000 	ldr	r2, [r3]
    a684:	e592300c 	ldr	r3, [r2, #12]
    a688:	e1a03823 	lsr	r3, r3, #16
    a68c:	e1a03803 	lsl	r3, r3, #16
    a690:	e582300c 	str	r3, [r2, #12]
    a694:	e59f3260 	ldr	r3, [pc, #608]	; a8fc <spi_init+0x310>
    a698:	e5932000 	ldr	r2, [r3]
    a69c:	e5923010 	ldr	r3, [r2, #16]
    a6a0:	e203300f 	and	r3, r3, #15
    a6a4:	e5823010 	str	r3, [r2, #16]
    a6a8:	e59f324c 	ldr	r3, [pc, #588]	; a8fc <spi_init+0x310>
    a6ac:	e5932000 	ldr	r2, [r3]
    a6b0:	e5923010 	ldr	r3, [r2, #16]
    a6b4:	e3c3300f 	bic	r3, r3, #15
    a6b8:	e5823010 	str	r3, [r2, #16]
    a6bc:	e59f3238 	ldr	r3, [pc, #568]	; a8fc <spi_init+0x310>
    a6c0:	e5932000 	ldr	r2, [r3]
    a6c4:	e5923014 	ldr	r3, [r2, #20]
    a6c8:	e3c334cf 	bic	r3, r3, #-822083584	; 0xcf000000
    a6cc:	e3833203 	orr	r3, r3, #805306368	; 0x30000000
    a6d0:	e5823014 	str	r3, [r2, #20]
    a6d4:	e59f3220 	ldr	r3, [pc, #544]	; a8fc <spi_init+0x310>
    a6d8:	e5932000 	ldr	r2, [r3]
    a6dc:	e5923014 	ldr	r3, [r2, #20]
    a6e0:	e3c338df 	bic	r3, r3, #14614528	; 0xdf0000
    a6e4:	e3833602 	orr	r3, r3, #2097152	; 0x200000
    a6e8:	e5823014 	str	r3, [r2, #20]
    a6ec:	e59f3208 	ldr	r3, [pc, #520]	; a8fc <spi_init+0x310>
    a6f0:	e5932000 	ldr	r2, [r3]
    a6f4:	e5923014 	ldr	r3, [r2, #20]
    a6f8:	e3c33cef 	bic	r3, r3, #61184	; 0xef00
    a6fc:	e3833a01 	orr	r3, r3, #4096	; 0x1000
    a700:	e5823014 	str	r3, [r2, #20]
    a704:	e59f31f0 	ldr	r3, [pc, #496]	; a8fc <spi_init+0x310>
    a708:	e5932000 	ldr	r2, [r3]
    a70c:	e5923014 	ldr	r3, [r2, #20]
    a710:	e3c330df 	bic	r3, r3, #223	; 0xdf
    a714:	e3833020 	orr	r3, r3, #32
    a718:	e5823014 	str	r3, [r2, #20]
    a71c:	e59f31d8 	ldr	r3, [pc, #472]	; a8fc <spi_init+0x310>
    a720:	e5932000 	ldr	r2, [r3]
    a724:	e5923000 	ldr	r3, [r2]
    a728:	e3c3333f 	bic	r3, r3, #-67108864	; 0xfc000000
    a72c:	e5823000 	str	r3, [r2]
    a730:	e59f31c4 	ldr	r3, [pc, #452]	; a8fc <spi_init+0x310>
    a734:	e5932000 	ldr	r2, [r3]
    a738:	e5923000 	ldr	r3, [r2]
    a73c:	e3c33402 	bic	r3, r3, #33554432	; 0x2000000
    a740:	e5823000 	str	r3, [r2]
    a744:	e59f31b0 	ldr	r3, [pc, #432]	; a8fc <spi_init+0x310>
    a748:	e5932000 	ldr	r2, [r3]
    a74c:	e5923000 	ldr	r3, [r2]
    a750:	e3c33401 	bic	r3, r3, #16777216	; 0x1000000
    a754:	e5823000 	str	r3, [r2]
    a758:	e59f319c 	ldr	r3, [pc, #412]	; a8fc <spi_init+0x310>
    a75c:	e5932000 	ldr	r2, [r3]
    a760:	e5923000 	ldr	r3, [r2]
    a764:	e3c33502 	bic	r3, r3, #8388608	; 0x800000
    a768:	e5823000 	str	r3, [r2]
    a76c:	e59f3188 	ldr	r3, [pc, #392]	; a8fc <spi_init+0x310>
    a770:	e5932000 	ldr	r2, [r3]
    a774:	e5923000 	ldr	r3, [r2]
    a778:	e3c33501 	bic	r3, r3, #4194304	; 0x400000
    a77c:	e5823000 	str	r3, [r2]
    a780:	e59f3174 	ldr	r3, [pc, #372]	; a8fc <spi_init+0x310>
    a784:	e5932000 	ldr	r2, [r3]
    a788:	e5923000 	ldr	r3, [r2]
    a78c:	e3c33602 	bic	r3, r3, #2097152	; 0x200000
    a790:	e5823000 	str	r3, [r2]
    a794:	e59f3160 	ldr	r3, [pc, #352]	; a8fc <spi_init+0x310>
    a798:	e5932000 	ldr	r2, [r3]
    a79c:	e5923000 	ldr	r3, [r2]
    a7a0:	e3c33902 	bic	r3, r3, #32768	; 0x8000
    a7a4:	e5823000 	str	r3, [r2]
    a7a8:	e59f314c 	ldr	r3, [pc, #332]	; a8fc <spi_init+0x310>
    a7ac:	e5932000 	ldr	r2, [r3]
    a7b0:	e5923000 	ldr	r3, [r2]
    a7b4:	e3c33901 	bic	r3, r3, #16384	; 0x4000
    a7b8:	e5823000 	str	r3, [r2]
    a7bc:	e59f3138 	ldr	r3, [pc, #312]	; a8fc <spi_init+0x310>
    a7c0:	e5932000 	ldr	r2, [r3]
    a7c4:	e5923000 	ldr	r3, [r2]
    a7c8:	e3c33a02 	bic	r3, r3, #8192	; 0x2000
    a7cc:	e5823000 	str	r3, [r2]
    a7d0:	e59f3124 	ldr	r3, [pc, #292]	; a8fc <spi_init+0x310>
    a7d4:	e5932000 	ldr	r2, [r3]
    a7d8:	e5923000 	ldr	r3, [r2]
    a7dc:	e3c33a01 	bic	r3, r3, #4096	; 0x1000
    a7e0:	e5823000 	str	r3, [r2]
    a7e4:	e59f3110 	ldr	r3, [pc, #272]	; a8fc <spi_init+0x310>
    a7e8:	e5932000 	ldr	r2, [r3]
    a7ec:	e5923000 	ldr	r3, [r2]
    a7f0:	e3c33b02 	bic	r3, r3, #2048	; 0x800
    a7f4:	e5823000 	str	r3, [r2]
    a7f8:	e59f30fc 	ldr	r3, [pc, #252]	; a8fc <spi_init+0x310>
    a7fc:	e5932000 	ldr	r2, [r3]
    a800:	e5923000 	ldr	r3, [r2]
    a804:	e3c33b01 	bic	r3, r3, #1024	; 0x400
    a808:	e5823000 	str	r3, [r2]
    a80c:	e59f30e8 	ldr	r3, [pc, #232]	; a8fc <spi_init+0x310>
    a810:	e5932000 	ldr	r2, [r3]
    a814:	e5923000 	ldr	r3, [r2]
    a818:	e3c33c02 	bic	r3, r3, #512	; 0x200
    a81c:	e5823000 	str	r3, [r2]
    a820:	e59f30d4 	ldr	r3, [pc, #212]	; a8fc <spi_init+0x310>
    a824:	e5932000 	ldr	r2, [r3]
    a828:	e5923000 	ldr	r3, [r2]
    a82c:	e3c33c01 	bic	r3, r3, #256	; 0x100
    a830:	e5823000 	str	r3, [r2]
    a834:	e59f30c0 	ldr	r3, [pc, #192]	; a8fc <spi_init+0x310>
    a838:	e5932000 	ldr	r2, [r3]
    a83c:	e5923000 	ldr	r3, [r2]
    a840:	e3c33080 	bic	r3, r3, #128	; 0x80
    a844:	e5823000 	str	r3, [r2]
    a848:	e59f30ac 	ldr	r3, [pc, #172]	; a8fc <spi_init+0x310>
    a84c:	e5932000 	ldr	r2, [r3]
    a850:	e5923000 	ldr	r3, [r2]
    a854:	e3c33040 	bic	r3, r3, #64	; 0x40
    a858:	e5823000 	str	r3, [r2]
    a85c:	e59f3098 	ldr	r3, [pc, #152]	; a8fc <spi_init+0x310>
    a860:	e5932000 	ldr	r2, [r3]
    a864:	e5923000 	ldr	r3, [r2]
    a868:	e3833030 	orr	r3, r3, #48	; 0x30
    a86c:	e5823000 	str	r3, [r2]
    a870:	e59f3084 	ldr	r3, [pc, #132]	; a8fc <spi_init+0x310>
    a874:	e5931000 	ldr	r1, [r3]
    a878:	e51b3008 	ldr	r3, [fp, #-8]
    a87c:	e20330ff 	and	r3, r3, #255	; 0xff
    a880:	e2033001 	and	r3, r3, #1
    a884:	e20320ff 	and	r2, r3, #255	; 0xff
    a888:	e5913000 	ldr	r3, [r1]
    a88c:	e2022001 	and	r2, r2, #1
    a890:	e3c33008 	bic	r3, r3, #8
    a894:	e1a02182 	lsl	r2, r2, #3
    a898:	e1823003 	orr	r3, r2, r3
    a89c:	e5813000 	str	r3, [r1]
    a8a0:	e59f3054 	ldr	r3, [pc, #84]	; a8fc <spi_init+0x310>
    a8a4:	e5931000 	ldr	r1, [r3]
    a8a8:	e51b300c 	ldr	r3, [fp, #-12]
    a8ac:	e20330ff 	and	r3, r3, #255	; 0xff
    a8b0:	e2033001 	and	r3, r3, #1
    a8b4:	e20320ff 	and	r2, r3, #255	; 0xff
    a8b8:	e5913000 	ldr	r3, [r1]
    a8bc:	e2022001 	and	r2, r2, #1
    a8c0:	e3c33004 	bic	r3, r3, #4
    a8c4:	e1a02102 	lsl	r2, r2, #2
    a8c8:	e1823003 	orr	r3, r2, r3
    a8cc:	e5813000 	str	r3, [r1]
    a8d0:	e59f3024 	ldr	r3, [pc, #36]	; a8fc <spi_init+0x310>
    a8d4:	e5932000 	ldr	r2, [r3]
    a8d8:	e5923000 	ldr	r3, [r2]
    a8dc:	e3c33003 	bic	r3, r3, #3
    a8e0:	e5823000 	str	r3, [r2]
    a8e4:	ebfffa15 	bl	9140 <system_memory_read_barrier>
    a8e8:	e3a03000 	mov	r3, #0
    a8ec:	e1a00003 	mov	r0, r3
    a8f0:	e24bd004 	sub	sp, fp, #4
    a8f4:	e8bd4800 	pop	{fp, lr}
    a8f8:	e12fff1e 	bx	lr
    a8fc:	0000afb0 			; <UNDEFINED> instruction: 0x0000afb0

0000a900 <spi_transfer>:
    a900:	e52db004 	push	{fp}		; (str fp, [sp, #-4]!)
    a904:	e28db000 	add	fp, sp, #0
    a908:	e24dd014 	sub	sp, sp, #20
    a90c:	e1a03000 	mov	r3, r0
    a910:	e54b300d 	strb	r3, [fp, #-13]
    a914:	e1a00000 	nop			; (mov r0, r0)
    a918:	e59f3098 	ldr	r3, [pc, #152]	; a9b8 <spi_transfer+0xb8>
    a91c:	e5933000 	ldr	r3, [r3]
    a920:	e5933000 	ldr	r3, [r3]
    a924:	e1a03923 	lsr	r3, r3, #18
    a928:	e2033001 	and	r3, r3, #1
    a92c:	e20330ff 	and	r3, r3, #255	; 0xff
    a930:	e3530000 	cmp	r3, #0
    a934:	0afffff7 	beq	a918 <spi_transfer+0x18>
    a938:	e59f3078 	ldr	r3, [pc, #120]	; a9b8 <spi_transfer+0xb8>
    a93c:	e5933000 	ldr	r3, [r3]
    a940:	e55b200d 	ldrb	r2, [fp, #-13]
    a944:	e5832004 	str	r2, [r3, #4]
    a948:	e1a00000 	nop			; (mov r0, r0)
    a94c:	e59f3064 	ldr	r3, [pc, #100]	; a9b8 <spi_transfer+0xb8>
    a950:	e5933000 	ldr	r3, [r3]
    a954:	e5933000 	ldr	r3, [r3]
    a958:	e1a03823 	lsr	r3, r3, #16
    a95c:	e2033001 	and	r3, r3, #1
    a960:	e20330ff 	and	r3, r3, #255	; 0xff
    a964:	e3530000 	cmp	r3, #0
    a968:	0afffff7 	beq	a94c <spi_transfer+0x4c>
    a96c:	e1a00000 	nop			; (mov r0, r0)
    a970:	e59f3040 	ldr	r3, [pc, #64]	; a9b8 <spi_transfer+0xb8>
    a974:	e5933000 	ldr	r3, [r3]
    a978:	e5933000 	ldr	r3, [r3]
    a97c:	e1a038a3 	lsr	r3, r3, #17
    a980:	e2033001 	and	r3, r3, #1
    a984:	e20330ff 	and	r3, r3, #255	; 0xff
    a988:	e3530000 	cmp	r3, #0
    a98c:	0afffff7 	beq	a970 <spi_transfer+0x70>
    a990:	e59f3020 	ldr	r3, [pc, #32]	; a9b8 <spi_transfer+0xb8>
    a994:	e5933000 	ldr	r3, [r3]
    a998:	e5933004 	ldr	r3, [r3, #4]
    a99c:	e20330ff 	and	r3, r3, #255	; 0xff
    a9a0:	e50b3008 	str	r3, [fp, #-8]
    a9a4:	e51b3008 	ldr	r3, [fp, #-8]
    a9a8:	e1a00003 	mov	r0, r3
    a9ac:	e24bd000 	sub	sp, fp, #0
    a9b0:	e49db004 	pop	{fp}		; (ldr fp, [sp], #4)
    a9b4:	e12fff1e 	bx	lr
    a9b8:	0000afb0 			; <UNDEFINED> instruction: 0x0000afb0

0000a9bc <transfer_bytes>:
    a9bc:	e92d4810 	push	{r4, fp, lr}
    a9c0:	e28db008 	add	fp, sp, #8
    a9c4:	e24dd01c 	sub	sp, sp, #28
    a9c8:	e50b0018 	str	r0, [fp, #-24]
    a9cc:	e50b101c 	str	r1, [fp, #-28]
    a9d0:	e50b2020 	str	r2, [fp, #-32]
    a9d4:	e50b3024 	str	r3, [fp, #-36]	; 0x24
    a9d8:	e51b3024 	ldr	r3, [fp, #-36]	; 0x24
    a9dc:	e3530001 	cmp	r3, #1
    a9e0:	9a000001 	bls	a9ec <transfer_bytes+0x30>
    a9e4:	e3e03000 	mvn	r3, #0
    a9e8:	ea00003b 	b	aadc <transfer_bytes+0x120>
    a9ec:	e51b3024 	ldr	r3, [fp, #-36]	; 0x24
    a9f0:	e3530001 	cmp	r3, #1
    a9f4:	9a000001 	bls	aa00 <transfer_bytes+0x44>
    a9f8:	e3e03000 	mvn	r3, #0
    a9fc:	ea000036 	b	aadc <transfer_bytes+0x120>
    aa00:	e59f30e4 	ldr	r3, [pc, #228]	; aaec <transfer_bytes+0x130>
    aa04:	e5932000 	ldr	r2, [r3]
    aa08:	e51b3024 	ldr	r3, [fp, #-36]	; 0x24
    aa0c:	e20330ff 	and	r3, r3, #255	; 0xff
    aa10:	e2033003 	and	r3, r3, #3
    aa14:	e20310ff 	and	r1, r3, #255	; 0xff
    aa18:	e5923000 	ldr	r3, [r2]
    aa1c:	e2011003 	and	r1, r1, #3
    aa20:	e3c33003 	bic	r3, r3, #3
    aa24:	e1813003 	orr	r3, r1, r3
    aa28:	e5823000 	str	r3, [r2]
    aa2c:	e59f30b8 	ldr	r3, [pc, #184]	; aaec <transfer_bytes+0x130>
    aa30:	e5932000 	ldr	r2, [r3]
    aa34:	e5923000 	ldr	r3, [r2]
    aa38:	e3833030 	orr	r3, r3, #48	; 0x30
    aa3c:	e5823000 	str	r3, [r2]
    aa40:	e59f30a4 	ldr	r3, [pc, #164]	; aaec <transfer_bytes+0x130>
    aa44:	e5932000 	ldr	r2, [r3]
    aa48:	e5923000 	ldr	r3, [r2]
    aa4c:	e3833080 	orr	r3, r3, #128	; 0x80
    aa50:	e5823000 	str	r3, [r2]
    aa54:	e3a03000 	mov	r3, #0
    aa58:	e50b3010 	str	r3, [fp, #-16]
    aa5c:	ea00000e 	b	aa9c <transfer_bytes+0xe0>
    aa60:	e51b201c 	ldr	r2, [fp, #-28]
    aa64:	e51b3010 	ldr	r3, [fp, #-16]
    aa68:	e0824003 	add	r4, r2, r3
    aa6c:	e51b2018 	ldr	r2, [fp, #-24]
    aa70:	e51b3010 	ldr	r3, [fp, #-16]
    aa74:	e0823003 	add	r3, r2, r3
    aa78:	e5d33000 	ldrb	r3, [r3]
    aa7c:	e1a00003 	mov	r0, r3
    aa80:	ebffff9e 	bl	a900 <spi_transfer>
    aa84:	e1a03000 	mov	r3, r0
    aa88:	e20330ff 	and	r3, r3, #255	; 0xff
    aa8c:	e5c43000 	strb	r3, [r4]
    aa90:	e51b3010 	ldr	r3, [fp, #-16]
    aa94:	e2833001 	add	r3, r3, #1
    aa98:	e50b3010 	str	r3, [fp, #-16]
    aa9c:	e51b2010 	ldr	r2, [fp, #-16]
    aaa0:	e51b3020 	ldr	r3, [fp, #-32]
    aaa4:	e1520003 	cmp	r2, r3
    aaa8:	3affffec 	bcc	aa60 <transfer_bytes+0xa4>
    aaac:	e59f3038 	ldr	r3, [pc, #56]	; aaec <transfer_bytes+0x130>
    aab0:	e5932000 	ldr	r2, [r3]
    aab4:	e5923000 	ldr	r3, [r2]
    aab8:	e3c33080 	bic	r3, r3, #128	; 0x80
    aabc:	e5823000 	str	r3, [r2]
    aac0:	e59f3024 	ldr	r3, [pc, #36]	; aaec <transfer_bytes+0x130>
    aac4:	e5932000 	ldr	r2, [r3]
    aac8:	e5923000 	ldr	r3, [r2]
    aacc:	e3c33030 	bic	r3, r3, #48	; 0x30
    aad0:	e5823000 	str	r3, [r2]
    aad4:	ebfff999 	bl	9140 <system_memory_read_barrier>
    aad8:	e3a03000 	mov	r3, #0
    aadc:	e1a00003 	mov	r0, r3
    aae0:	e24bd008 	sub	sp, fp, #8
    aae4:	e8bd4810 	pop	{r4, fp, lr}
    aae8:	e12fff1e 	bx	lr
    aaec:	0000afb0 			; <UNDEFINED> instruction: 0x0000afb0

0000aaf0 <write>:
    aaf0:	e92d4800 	push	{fp, lr}
    aaf4:	e28db004 	add	fp, sp, #4
    aaf8:	e24dd010 	sub	sp, sp, #16
    aafc:	e1a02000 	mov	r2, r0
    ab00:	e1a03001 	mov	r3, r1
    ab04:	e54b200d 	strb	r2, [fp, #-13]
    ab08:	e54b300e 	strb	r3, [fp, #-14]
    ab0c:	e55b300d 	ldrb	r3, [fp, #-13]
    ab10:	e1e03c83 	mvn	r3, r3, lsl #25
    ab14:	e1e03ca3 	mvn	r3, r3, lsr #25
    ab18:	e54b300d 	strb	r3, [fp, #-13]
    ab1c:	e55b300d 	ldrb	r3, [fp, #-13]
    ab20:	e54b3008 	strb	r3, [fp, #-8]
    ab24:	e55b300e 	ldrb	r3, [fp, #-14]
    ab28:	e54b3007 	strb	r3, [fp, #-7]
    ab2c:	e24b2008 	sub	r2, fp, #8
    ab30:	e24b300c 	sub	r3, fp, #12
    ab34:	e1a00002 	mov	r0, r2
    ab38:	e1a01003 	mov	r1, r3
    ab3c:	e3a02002 	mov	r2, #2
    ab40:	e3a03000 	mov	r3, #0
    ab44:	ebffff9c 	bl	a9bc <transfer_bytes>
    ab48:	e24bd004 	sub	sp, fp, #4
    ab4c:	e8bd4800 	pop	{fp, lr}
    ab50:	e12fff1e 	bx	lr

0000ab54 <read>:
    ab54:	e92d4800 	push	{fp, lr}
    ab58:	e28db004 	add	fp, sp, #4
    ab5c:	e24dd010 	sub	sp, sp, #16
    ab60:	e1a03000 	mov	r3, r0
    ab64:	e54b300d 	strb	r3, [fp, #-13]
    ab68:	e55b300d 	ldrb	r3, [fp, #-13]
    ab6c:	e203307f 	and	r3, r3, #127	; 0x7f
    ab70:	e54b300d 	strb	r3, [fp, #-13]
    ab74:	e55b300d 	ldrb	r3, [fp, #-13]
    ab78:	e54b3008 	strb	r3, [fp, #-8]
    ab7c:	e3e03000 	mvn	r3, #0
    ab80:	e54b3007 	strb	r3, [fp, #-7]
    ab84:	e24b2008 	sub	r2, fp, #8
    ab88:	e24b300c 	sub	r3, fp, #12
    ab8c:	e1a00002 	mov	r0, r2
    ab90:	e1a01003 	mov	r1, r3
    ab94:	e3a02002 	mov	r2, #2
    ab98:	e3a03000 	mov	r3, #0
    ab9c:	ebffff86 	bl	a9bc <transfer_bytes>
    aba0:	e55b300b 	ldrb	r3, [fp, #-11]
    aba4:	e1a00003 	mov	r0, r3
    aba8:	e24bd004 	sub	sp, fp, #4
    abac:	e8bd4800 	pop	{fp, lr}
    abb0:	e12fff1e 	bx	lr

0000abb4 <radio_init>:
    abb4:	e92d4800 	push	{fp, lr}
    abb8:	e28db004 	add	fp, sp, #4
    abbc:	e3a00005 	mov	r0, #5
    abc0:	e3a01000 	mov	r1, #0
    abc4:	ebffffc9 	bl	aaf0 <write>
    abc8:	e3a00007 	mov	r0, #7
    abcc:	e3a01001 	mov	r1, #1
    abd0:	ebffffc6 	bl	aaf0 <write>
    abd4:	e3a00009 	mov	r0, #9
    abd8:	e3a0107f 	mov	r1, #127	; 0x7f
    abdc:	ebffffc3 	bl	aaf0 <write>
    abe0:	e3a0000a 	mov	r0, #10
    abe4:	e3a0101f 	mov	r1, #31
    abe8:	ebffffc0 	bl	aaf0 <write>
    abec:	e3a0000f 	mov	r0, #15
    abf0:	e3a01070 	mov	r1, #112	; 0x70
    abf4:	ebffffbd 	bl	aaf0 <write>
    abf8:	e3a00010 	mov	r0, #16
    abfc:	e3a01000 	mov	r1, #0
    ac00:	ebffffba 	bl	aaf0 <write>
    ac04:	e3a00012 	mov	r0, #18
    ac08:	e3a01000 	mov	r1, #0
    ac0c:	ebffffb7 	bl	aaf0 <write>
    ac10:	e3a00012 	mov	r0, #18
    ac14:	e3a01000 	mov	r1, #0
    ac18:	ebffffb4 	bl	aaf0 <write>
    ac1c:	e3a0001c 	mov	r0, #28
    ac20:	e3a01081 	mov	r1, #129	; 0x81
    ac24:	ebffffb1 	bl	aaf0 <write>
    ac28:	e3a0001d 	mov	r0, #29
    ac2c:	e3a01040 	mov	r1, #64	; 0x40
    ac30:	ebffffae 	bl	aaf0 <write>
    ac34:	e3a00020 	mov	r0, #32
    ac38:	e3a01078 	mov	r1, #120	; 0x78
    ac3c:	ebffffab 	bl	aaf0 <write>
    ac40:	e3a00021 	mov	r0, #33	; 0x21
    ac44:	e3a01001 	mov	r1, #1
    ac48:	ebffffa8 	bl	aaf0 <write>
    ac4c:	e3a00022 	mov	r0, #34	; 0x22
    ac50:	e3a01011 	mov	r1, #17
    ac54:	ebffffa5 	bl	aaf0 <write>
    ac58:	e3a00023 	mov	r0, #35	; 0x23
    ac5c:	e3a01011 	mov	r1, #17
    ac60:	ebffffa2 	bl	aaf0 <write>
    ac64:	e3a00024 	mov	r0, #36	; 0x24
    ac68:	e3a01001 	mov	r1, #1
    ac6c:	ebffff9f 	bl	aaf0 <write>
    ac70:	e3a00025 	mov	r0, #37	; 0x25
    ac74:	e3a01013 	mov	r1, #19
    ac78:	ebffff9c 	bl	aaf0 <write>
    ac7c:	e3a0002c 	mov	r0, #44	; 0x2c
    ac80:	e3a01028 	mov	r1, #40	; 0x28
    ac84:	ebffff99 	bl	aaf0 <write>
    ac88:	e3a0002d 	mov	r0, #45	; 0x2d
    ac8c:	e3a0100c 	mov	r1, #12
    ac90:	ebffff96 	bl	aaf0 <write>
    ac94:	e3a0002e 	mov	r0, #46	; 0x2e
    ac98:	e3a01028 	mov	r1, #40	; 0x28
    ac9c:	ebffff93 	bl	aaf0 <write>
    aca0:	e3a0001f 	mov	r0, #31
    aca4:	e3a01003 	mov	r1, #3
    aca8:	ebffff90 	bl	aaf0 <write>
    acac:	e3a00069 	mov	r0, #105	; 0x69
    acb0:	e3a01060 	mov	r1, #96	; 0x60
    acb4:	ebffff8d 	bl	aaf0 <write>
    acb8:	e3a0006e 	mov	r0, #110	; 0x6e
    acbc:	e3a01019 	mov	r1, #25
    acc0:	ebffff8a 	bl	aaf0 <write>
    acc4:	e3a0006f 	mov	r0, #111	; 0x6f
    acc8:	e3a0109a 	mov	r1, #154	; 0x9a
    accc:	ebffff87 	bl	aaf0 <write>
    acd0:	e3a00030 	mov	r0, #48	; 0x30
    acd4:	e3a01000 	mov	r1, #0
    acd8:	ebffff84 	bl	aaf0 <write>
    acdc:	e3a00033 	mov	r0, #51	; 0x33
    ace0:	e3a01080 	mov	r1, #128	; 0x80
    ace4:	ebffff81 	bl	aaf0 <write>
    ace8:	e3a00034 	mov	r0, #52	; 0x34
    acec:	e3a01000 	mov	r1, #0
    acf0:	ebffff7e 	bl	aaf0 <write>
    acf4:	e3a00035 	mov	r0, #53	; 0x35
    acf8:	e3a0100a 	mov	r1, #10
    acfc:	ebffff7b 	bl	aaf0 <write>
    ad00:	e3a00058 	mov	r0, #88	; 0x58
    ad04:	e3a010c0 	mov	r1, #192	; 0xc0
    ad08:	ebffff78 	bl	aaf0 <write>
    ad0c:	e3a0006d 	mov	r0, #109	; 0x6d
    ad10:	e3a01007 	mov	r1, #7
    ad14:	ebffff75 	bl	aaf0 <write>
    ad18:	e3a00079 	mov	r0, #121	; 0x79
    ad1c:	e3a01000 	mov	r1, #0
    ad20:	ebffff72 	bl	aaf0 <write>
    ad24:	e3a0007a 	mov	r0, #122	; 0x7a
    ad28:	e3a01000 	mov	r1, #0
    ad2c:	ebffff6f 	bl	aaf0 <write>
    ad30:	e3a00070 	mov	r0, #112	; 0x70
    ad34:	e3a0100c 	mov	r1, #12
    ad38:	ebffff6c 	bl	aaf0 <write>
    ad3c:	e3a00071 	mov	r0, #113	; 0x71
    ad40:	e3a01091 	mov	r1, #145	; 0x91
    ad44:	ebffff69 	bl	aaf0 <write>
    ad48:	e3a00075 	mov	r0, #117	; 0x75
    ad4c:	e3a01053 	mov	r1, #83	; 0x53
    ad50:	ebffff66 	bl	aaf0 <write>
    ad54:	e3a00076 	mov	r0, #118	; 0x76
    ad58:	e3a01064 	mov	r1, #100	; 0x64
    ad5c:	ebffff63 	bl	aaf0 <write>
    ad60:	e3a00077 	mov	r0, #119	; 0x77
    ad64:	e3a01000 	mov	r1, #0
    ad68:	ebffff60 	bl	aaf0 <write>
    ad6c:	e24bd004 	sub	sp, fp, #4
    ad70:	e8bd4800 	pop	{fp, lr}
    ad74:	e12fff1e 	bx	lr

0000ad78 <transmit>:
    ad78:	e92d4800 	push	{fp, lr}
    ad7c:	e28db004 	add	fp, sp, #4
    ad80:	e24dd008 	sub	sp, sp, #8
    ad84:	e3a00007 	mov	r0, #7
    ad88:	e3a01009 	mov	r1, #9
    ad8c:	ebffff57 	bl	aaf0 <write>
    ad90:	e59f00ac 	ldr	r0, [pc, #172]	; ae44 <transmit+0xcc>
    ad94:	ebfff875 	bl	8f70 <timer_wait_for>
    ad98:	e3a00002 	mov	r0, #2
    ad9c:	ebffff6c 	bl	ab54 <read>
    ada0:	e1a03000 	mov	r3, r0
    ada4:	e54b3005 	strb	r3, [fp, #-5]
    ada8:	e3a0000a 	mov	r0, #10
    adac:	e3a01001 	mov	r1, #1
    adb0:	ebfff703 	bl	89c4 <gpio_set_function>
    adb4:	e59f0088 	ldr	r0, [pc, #136]	; ae44 <transmit+0xcc>
    adb8:	ebfff86c 	bl	8f70 <timer_wait_for>
    adbc:	ebfff84b 	bl	8ef0 <timer_gettime>
    adc0:	e50b000c 	str	r0, [fp, #-12]
    adc4:	ebfff849 	bl	8ef0 <timer_gettime>
    adc8:	e1a00000 	nop			; (mov r0, r0)
    adcc:	e3a00009 	mov	r0, #9
    add0:	ebfff730 	bl	8a98 <gpio_pin_read>
    add4:	e1a03000 	mov	r3, r0
    add8:	e3530000 	cmp	r3, #0
    addc:	0afffffa 	beq	adcc <transmit+0x54>
    ade0:	e3a0000a 	mov	r0, #10
    ade4:	e3a01000 	mov	r1, #0
    ade8:	ebfff743 	bl	8afc <gpio_pin_write>
    adec:	e1a00000 	nop			; (mov r0, r0)
    adf0:	e3a00009 	mov	r0, #9
    adf4:	ebfff727 	bl	8a98 <gpio_pin_read>
    adf8:	e1a03000 	mov	r3, r0
    adfc:	e3530000 	cmp	r3, #0
    ae00:	1afffffa 	bne	adf0 <transmit+0x78>
    ae04:	e1a00000 	nop			; (mov r0, r0)
    ae08:	e3a00009 	mov	r0, #9
    ae0c:	ebfff721 	bl	8a98 <gpio_pin_read>
    ae10:	e1a03000 	mov	r3, r0
    ae14:	e3530000 	cmp	r3, #0
    ae18:	0afffffa 	beq	ae08 <transmit+0x90>
    ae1c:	e3a0000a 	mov	r0, #10
    ae20:	e3a01001 	mov	r1, #1
    ae24:	ebfff734 	bl	8afc <gpio_pin_write>
    ae28:	e1a00000 	nop			; (mov r0, r0)
    ae2c:	e3a00009 	mov	r0, #9
    ae30:	ebfff718 	bl	8a98 <gpio_pin_read>
    ae34:	e1a03000 	mov	r3, r0
    ae38:	e3530000 	cmp	r3, #0
    ae3c:	1afffffa 	bne	ae2c <transmit+0xb4>
    ae40:	eaffffdf 	b	adc4 <transmit+0x4c>
    ae44:	00002710 	andeq	r2, r0, r0, lsl r7

0000ae48 <receive>:
    ae48:	e92d4800 	push	{fp, lr}
    ae4c:	e28db004 	add	fp, sp, #4
    ae50:	e3a00007 	mov	r0, #7
    ae54:	e3a01005 	mov	r1, #5
    ae58:	ebffff24 	bl	aaf0 <write>
    ae5c:	e59f006c 	ldr	r0, [pc, #108]	; aed0 <receive+0x88>
    ae60:	ebfff842 	bl	8f70 <timer_wait_for>
    ae64:	e3a0000a 	mov	r0, #10
    ae68:	e3a01000 	mov	r1, #0
    ae6c:	ebfff6d4 	bl	89c4 <gpio_set_function>
    ae70:	e1a00000 	nop			; (mov r0, r0)
    ae74:	e3a00009 	mov	r0, #9
    ae78:	ebfff706 	bl	8a98 <gpio_pin_read>
    ae7c:	e1a03000 	mov	r3, r0
    ae80:	e3530000 	cmp	r3, #0
    ae84:	0afffffa 	beq	ae74 <receive+0x2c>
    ae88:	e3a00005 	mov	r0, #5
    ae8c:	ebfff837 	bl	8f70 <timer_wait_for>
    ae90:	e3a0000a 	mov	r0, #10
    ae94:	ebfff6ff 	bl	8a98 <gpio_pin_read>
    ae98:	e1a03000 	mov	r3, r0
    ae9c:	e2833061 	add	r3, r3, #97	; 0x61
    aea0:	e1a00003 	mov	r0, r3
    aea4:	ebfff90d 	bl	92e0 <uart_putc>
    aea8:	e3a0000a 	mov	r0, #10
    aeac:	ebfff90b 	bl	92e0 <uart_putc>
    aeb0:	e1a00000 	nop			; (mov r0, r0)
    aeb4:	e3a00009 	mov	r0, #9
    aeb8:	ebfff6f6 	bl	8a98 <gpio_pin_read>
    aebc:	e1a03000 	mov	r3, r0
    aec0:	e3530000 	cmp	r3, #0
    aec4:	1afffffa 	bne	aeb4 <receive+0x6c>
    aec8:	e1a00000 	nop			; (mov r0, r0)
    aecc:	eaffffe7 	b	ae70 <receive+0x28>
    aed0:	00002710 	andeq	r2, r0, r0, lsl r7

0000aed4 <check_rssi>:
    aed4:	e92d4800 	push	{fp, lr}
    aed8:	e28db004 	add	fp, sp, #4
    aedc:	e24dd008 	sub	sp, sp, #8
    aee0:	e3a00007 	mov	r0, #7
    aee4:	e3a01005 	mov	r1, #5
    aee8:	ebffff00 	bl	aaf0 <write>
    aeec:	e59f002c 	ldr	r0, [pc, #44]	; af20 <check_rssi+0x4c>
    aef0:	ebfff81e 	bl	8f70 <timer_wait_for>
    aef4:	e3a00002 	mov	r0, #2
    aef8:	ebffff15 	bl	ab54 <read>
    aefc:	e1a03000 	mov	r3, r0
    af00:	e54b3005 	strb	r3, [fp, #-5]
    af04:	e55b3005 	ldrb	r3, [fp, #-5]
    af08:	e2833030 	add	r3, r3, #48	; 0x30
    af0c:	e1a00003 	mov	r0, r3
    af10:	ebfff8f2 	bl	92e0 <uart_putc>
    af14:	e3a0000a 	mov	r0, #10
    af18:	ebfff8f0 	bl	92e0 <uart_putc>
    af1c:	eafffff8 	b	af04 <check_rssi+0x30>
    af20:	00002710 	andeq	r2, r0, r0, lsl r7

0000af24 <notmain>:
    af24:	e92d4800 	push	{fp, lr}
    af28:	e28db004 	add	fp, sp, #4
    af2c:	e24dd008 	sub	sp, sp, #8
    af30:	ebfff62d 	bl	87ec <gpio_init>
    af34:	ebfff7d8 	bl	8e9c <timer_init>
    af38:	ebfff8a1 	bl	91c4 <uart_init>
    af3c:	e3a00000 	mov	r0, #0
    af40:	e3a01000 	mov	r1, #0
    af44:	ebfffda8 	bl	a5ec <spi_init>
    af48:	e59f0044 	ldr	r0, [pc, #68]	; af94 <notmain+0x70>
    af4c:	ebfff807 	bl	8f70 <timer_wait_for>
    af50:	ebffff17 	bl	abb4 <radio_init>
    af54:	e3a00ffa 	mov	r0, #1000	; 0x3e8
    af58:	ebfff804 	bl	8f70 <timer_wait_for>
    af5c:	ebffffb9 	bl	ae48 <receive>
    af60:	e3a00071 	mov	r0, #113	; 0x71
    af64:	ebfffefa 	bl	ab54 <read>
    af68:	e1a03000 	mov	r3, r0
    af6c:	e54b3005 	strb	r3, [fp, #-5]
    af70:	e55b3005 	ldrb	r3, [fp, #-5]
    af74:	e2433040 	sub	r3, r3, #64	; 0x40
    af78:	e1a00003 	mov	r0, r3
    af7c:	ebfff8d7 	bl	92e0 <uart_putc>
    af80:	e3a0000a 	mov	r0, #10
    af84:	ebfff8d5 	bl	92e0 <uart_putc>
    af88:	e59f0008 	ldr	r0, [pc, #8]	; af98 <notmain+0x74>
    af8c:	ebfff7f7 	bl	8f70 <timer_wait_for>
    af90:	eafffff6 	b	af70 <notmain+0x4c>
    af94:	001e8480 	andseq	r8, lr, r0, lsl #9
    af98:	0007a120 	andeq	sl, r7, r0, lsr #2

Disassembly of section .data:

0000af9c <uart>:
    af9c:	20215040 	eorcs	r5, r1, r0, asr #32

0000afa0 <hexChars>:
    afa0:	33323130 	teqcc	r2, #48, 2
    afa4:	37363534 			; <UNDEFINED> instruction: 0x37363534
    afa8:	42413938 	submi	r3, r1, #56, 18	; 0xe0000
    afac:	46454443 	strbmi	r4, [r5], -r3, asr #8

0000afb0 <spi_config_t>:
    afb0:	20204000 	eorcs	r4, r0, r0

Disassembly of section .bss:

0000afb4 <__bss_start__>:
    afb4:	00000000 	andeq	r0, r0, r0

0000afb8 <has_fired_>:
    afb8:	00000000 	andeq	r0, r0, r0

0000afbc <last_firing_>:
    afbc:	00000000 	andeq	r0, r0, r0

Disassembly of section .ARM.attributes:

00000000 <.ARM.attributes>:
   0:	00002a41 	andeq	r2, r0, r1, asr #20
   4:	61656100 	cmnvs	r5, r0, lsl #2
   8:	01006962 	tsteq	r0, r2, ror #18
   c:	00000020 	andeq	r0, r0, r0, lsr #32
  10:	4d524105 	ldfmie	f4, [r2, #-20]	; 0xffffffec
  14:	54347620 	ldrtpl	r7, [r4], #-1568	; 0x620
  18:	08020600 	stmdaeq	r2, {r9, sl}
  1c:	12010901 	andne	r0, r1, #16384	; 0x4000
  20:	15011404 	strne	r1, [r1, #-1028]	; 0x404
  24:	18031701 	stmdane	r3, {r0, r8, r9, sl, ip}
  28:	Address 0x0000000000000028 is out of bounds.


Disassembly of section .comment:

00000000 <.comment>:
   0:	3a434347 	bcc	10d0d24 <__bss_end__+0x10c5d64>
   4:	4e472820 	cdpmi	8, 4, cr2, cr7, cr0, {1}
   8:	34202955 	strtcc	r2, [r0], #-2389	; 0x955
   c:	332e382e 	teqcc	lr, #3014656	; 0x2e0000
	...

Disassembly of section .debug_info:

00000000 <.debug_info>:
       0:	000000b7 	strheq	r0, [r0], -r7
       4:	00000004 	andeq	r0, r0, r4
       8:	01040000 	mrseq	r0, (UNDEF: 4)
       c:	00000078 	andeq	r0, r0, r8, ror r0
      10:	00001401 	andeq	r1, r0, r1, lsl #8
      14:	00003700 	andeq	r3, r0, r0, lsl #14
      18:	00806800 	addeq	r6, r0, r0, lsl #16
      1c:	0000b800 	andeq	fp, r0, r0, lsl #16
      20:	00000000 	andeq	r0, r0, r0
      24:	00280200 	eoreq	r0, r8, r0, lsl #4
      28:	0a010000 	beq	40030 <__bss_end__+0x35070>
      2c:	00008068 	andeq	r8, r0, r8, rrx
      30:	000000b8 	strheq	r0, [r0], -r8
      34:	00819c01 	addeq	r9, r1, r1, lsl #24
      38:	62030000 	andvs	r0, r3, #0
      3c:	01007373 	tsteq	r0, r3, ror r3
      40:	0000810c 	andeq	r8, r0, ip, lsl #2
      44:	74910200 	ldrvc	r0, [r1], #512	; 0x200
      48:	00000c04 	andeq	r0, r0, r4, lsl #24
      4c:	810d0100 	mrshi	r0, (UNDEF: 29)
      50:	02000000 	andeq	r0, r0, #0
      54:	15046891 	strne	r6, [r4, #-2193]	; 0x891
      58:	0100000b 	tsteq	r0, fp
      5c:	00008115 	andeq	r8, r0, r5, lsl r1
      60:	70910200 	addsvc	r0, r1, r0, lsl #4
      64:	00003104 	andeq	r3, r0, r4, lsl #2
      68:	81160100 	tsthi	r6, r0, lsl #2
      6c:	02000000 	andeq	r0, r0, #0
      70:	1e046c91 	mcrne	12, 0, r6, cr4, cr1, {4}
      74:	01000000 	mrseq	r0, (UNDEF: 0)
      78:	00008117 	andeq	r8, r0, r7, lsl r1
      7c:	64910200 	ldrvs	r0, [r1], #512	; 0x200
      80:	87040500 	strhi	r0, [r4, -r0, lsl #10]
      84:	06000000 	streq	r0, [r0], -r0
      88:	6e690504 	cdpvs	5, 6, cr0, cr9, cr4, {0}
      8c:	6a070074 	bvs	1c0264 <__bss_end__+0x1b52a4>
      90:	01000000 	mrseq	r0, (UNDEF: 0)
      94:	00008701 	andeq	r8, r0, r1, lsl #14
      98:	00000700 	andeq	r0, r0, r0, lsl #14
      9c:	02010000 	andeq	r0, r1, #0
      a0:	00000087 	andeq	r0, r0, r7, lsl #1
      a4:	00003007 	andeq	r3, r0, r7
      a8:	87030100 	strhi	r0, [r3, -r0, lsl #2]
      ac:	07000000 	streq	r0, [r0, -r0]
      b0:	0000001d 	andeq	r0, r0, sp, lsl r0
      b4:	00870401 	addeq	r0, r7, r1, lsl #8
      b8:	b1000000 	mrslt	r0, (UNDEF: 0)
      bc:	04000000 	streq	r0, [r0], #-0
      c0:	00006f00 	andeq	r6, r0, r0, lsl #30
      c4:	78010400 	stmdavc	r1, {sl}
      c8:	01000000 	mrseq	r0, (UNDEF: 0)
      cc:	000000b7 	strheq	r0, [r0], -r7
      d0:	00000037 	andeq	r0, r0, r7, lsr r0
      d4:	0000814c 	andeq	r8, r0, ip, asr #2
      d8:	00000128 	andeq	r0, r0, r8, lsr #2
      dc:	0000004f 	andeq	r0, r0, pc, asr #32
      e0:	0000ae02 	andeq	sl, r0, r2, lsl #28
      e4:	4c140100 	ldfmis	f0, [r4], {-0}
      e8:	5c000081 	stcpl	0, cr0, [r0], {129}	; 0x81
      ec:	01000000 	mrseq	r0, (UNDEF: 0)
      f0:	0000499c 	muleq	r0, ip, r9
      f4:	65720300 	ldrbvs	r0, [r2, #-768]!	; 0x300
      f8:	16010067 	strne	r0, [r1], -r7, rrx
      fc:	00000049 	andeq	r0, r0, r9, asr #32
     100:	00749102 	rsbseq	r9, r4, r2, lsl #2
     104:	a1070404 	tstge	r7, r4, lsl #8
     108:	05000000 	streq	r0, [r0, #-0]
     10c:	000000da 	ldrdeq	r0, [r0], -sl
     110:	81a81e01 			; <UNDEFINED> instruction: 0x81a81e01
     114:	00340000 	eorseq	r0, r4, r0
     118:	9c010000 	stcls	0, cr0, [r1], {-0}
     11c:	0000d205 	andeq	sp, r0, r5, lsl #4
     120:	dc230100 	stfles	f0, [r3], #-0
     124:	34000081 	strcc	r0, [r0], #-129	; 0x81
     128:	01000000 	mrseq	r0, (UNDEF: 0)
     12c:	00c8069c 	smulleq	r0, r8, ip, r6
     130:	28010000 	stmdacs	r1, {}	; <UNPREDICTABLE>
     134:	00000087 	andeq	r0, r0, r7, lsl #1
     138:	00008210 	andeq	r8, r0, r0, lsl r2
     13c:	00000024 	andeq	r0, r0, r4, lsr #32
     140:	04079c01 	streq	r9, [r7], #-3073	; 0xc01
     144:	746e6905 	strbtvc	r6, [lr], #-2309	; 0x905
     148:	00960800 	addseq	r0, r6, r0, lsl #16
     14c:	2c010000 	stccs	0, cr0, [r1], {-0}
     150:	00000087 	andeq	r0, r0, r7, lsl #1
     154:	00008234 	andeq	r8, r0, r4, lsr r2
     158:	00000040 	andeq	r0, r0, r0, asr #32
     15c:	bd099c01 	stclt	12, cr9, [r9, #-4]
     160:	01000000 	mrseq	r0, (UNDEF: 0)
     164:	00008712 	andeq	r8, r0, r2, lsl r7
     168:	b4030500 	strlt	r0, [r3], #-1280	; 0x500
     16c:	000000af 	andeq	r0, r0, pc, lsr #1
     170:	000009c9 	andeq	r0, r0, r9, asr #19
     174:	01150004 	tsteq	r5, r4
     178:	01040000 	mrseq	r0, (UNDEF: 4)
     17c:	00000078 	andeq	r0, r0, r8, ror r0
     180:	00068c01 	andeq	r8, r6, r1, lsl #24
     184:	00003700 	andeq	r3, r0, r0, lsl #14
     188:	00827400 	addeq	r7, r2, r0, lsl #8
     18c:	000c2800 	andeq	r2, ip, r0, lsl #16
     190:	00009b00 	andeq	r9, r0, r0, lsl #22
     194:	02010200 	andeq	r0, r1, #0, 4
     198:	00018406 	andeq	r8, r1, r6, lsl #8
     19c:	058e0300 	streq	r0, [lr, #768]	; 0x300
     1a0:	03000000 	movweq	r0, #0
     1a4:	000005d4 	ldrdeq	r0, [r0], -r4
     1a8:	05de0300 	ldrbeq	r0, [lr, #768]	; 0x300
     1ac:	03010000 	movweq	r0, #4096	; 0x1000
     1b0:	000005e8 	andeq	r0, r0, r8, ror #11
     1b4:	05f20302 	ldrbeq	r0, [r2, #770]!	; 0x302
     1b8:	03030000 	movweq	r0, #12288	; 0x3000
     1bc:	000005fc 	strdeq	r0, [r0], -ip
     1c0:	06060304 	streq	r0, [r6], -r4, lsl #6
     1c4:	03050000 	movweq	r0, #20480	; 0x5000
     1c8:	00000610 	andeq	r0, r0, r0, lsl r6
     1cc:	061a0306 	ldreq	r0, [sl], -r6, lsl #6
     1d0:	03070000 	movweq	r0, #28672	; 0x7000
     1d4:	00000624 	andeq	r0, r0, r4, lsr #12
     1d8:	062e0308 	strteq	r0, [lr], -r8, lsl #6
     1dc:	03090000 	movweq	r0, #36864	; 0x9000
     1e0:	0000048d 	andeq	r0, r0, sp, lsl #9
     1e4:	0498030a 	ldreq	r0, [r8], #778	; 0x30a
     1e8:	030b0000 	movweq	r0, #45056	; 0xb000
     1ec:	000004a3 	andeq	r0, r0, r3, lsr #9
     1f0:	04ae030c 	strteq	r0, [lr], #780	; 0x30c
     1f4:	030d0000 	movweq	r0, #53248	; 0xd000
     1f8:	000004b9 			; <UNDEFINED> instruction: 0x000004b9
     1fc:	04c4030e 	strbeq	r0, [r4], #782	; 0x30e
     200:	030f0000 	movweq	r0, #61440	; 0xf000
     204:	000004cf 	andeq	r0, r0, pc, asr #9
     208:	04da0310 	ldrbeq	r0, [sl], #784	; 0x310
     20c:	03110000 	tsteq	r1, #0
     210:	000004e5 	andeq	r0, r0, r5, ror #9
     214:	04f00312 	ldrbteq	r0, [r0], #786	; 0x312
     218:	03130000 	tsteq	r3, #0
     21c:	00000655 	andeq	r0, r0, r5, asr r6
     220:	06600314 			; <UNDEFINED> instruction: 0x06600314
     224:	03150000 	tsteq	r5, #0
     228:	0000066b 	andeq	r0, r0, fp, ror #12
     22c:	06760316 			; <UNDEFINED> instruction: 0x06760316
     230:	03170000 	tsteq	r7, #0
     234:	00000681 	andeq	r0, r0, r1, lsl #13
     238:	05340318 	ldreq	r0, [r4, #-792]!	; 0x318
     23c:	03190000 	tsteq	r9, #0
     240:	00000693 	muleq	r0, r3, r6
     244:	069e031a 			; <UNDEFINED> instruction: 0x069e031a
     248:	031b0000 	tsteq	fp, #0
     24c:	000006a9 	andeq	r0, r0, r9, lsr #13
     250:	06b4031c 	ssateq	r0, #21, ip, lsl #6
     254:	031d0000 	tsteq	sp, #0
     258:	00000197 	muleq	r0, r7, r1
     25c:	01a2031e 			; <UNDEFINED> instruction: 0x01a2031e
     260:	031f0000 	tsteq	pc, #0
     264:	000001ad 	andeq	r0, r0, sp, lsr #3
     268:	01b80320 			; <UNDEFINED> instruction: 0x01b80320
     26c:	03210000 	teqeq	r1, #0
     270:	000001c3 	andeq	r0, r0, r3, asr #3
     274:	01ce0322 	biceq	r0, lr, r2, lsr #6
     278:	03230000 	teqeq	r3, #0
     27c:	000001d9 	ldrdeq	r0, [r0], -r9
     280:	01e40324 	mvneq	r0, r4, lsr #6
     284:	03250000 	teqeq	r5, #0
     288:	000001ef 	andeq	r0, r0, pc, ror #3
     28c:	01fa0326 	mvnseq	r0, r6, lsr #6
     290:	03270000 	teqeq	r7, #0
     294:	00000378 	andeq	r0, r0, r8, ror r3
     298:	03830328 	orreq	r0, r3, #40, 6	; 0xa0000000
     29c:	03290000 	teqeq	r9, #0
     2a0:	0000038e 	andeq	r0, r0, lr, lsl #7
     2a4:	0399032a 	orrseq	r0, r9, #-1476395008	; 0xa8000000
     2a8:	032b0000 	teqeq	fp, #0
     2ac:	000003a4 	andeq	r0, r0, r4, lsr #7
     2b0:	03af032c 			; <UNDEFINED> instruction: 0x03af032c
     2b4:	032d0000 	teqeq	sp, #0
     2b8:	000003ba 			; <UNDEFINED> instruction: 0x000003ba
     2bc:	03c5032e 	biceq	r0, r5, #-1207959552	; 0xb8000000
     2c0:	032f0000 	teqeq	pc, #0
     2c4:	000003d0 	ldrdeq	r0, [r0], -r0	; <UNPREDICTABLE>
     2c8:	03db0330 	bicseq	r0, fp, #48, 6	; 0xc0000000
     2cc:	03310000 	teqeq	r1, #0
     2d0:	00000557 	andeq	r0, r0, r7, asr r5
     2d4:	05620332 	strbeq	r0, [r2, #-818]!	; 0x332
     2d8:	03330000 	teqeq	r3, #0
     2dc:	0000056d 	andeq	r0, r0, sp, ror #10
     2e0:	05780334 	ldrbeq	r0, [r8, #-820]!	; 0x334
     2e4:	03350000 	teqeq	r5, #0
     2e8:	00000583 	andeq	r0, r0, r3, lsl #11
     2ec:	02810336 	addeq	r0, r1, #-671088640	; 0xd8000000
     2f0:	00360000 	eorseq	r0, r6, r0
     2f4:	42020102 	andmi	r0, r2, #-2147483648	; 0x80000000
     2f8:	000001c3 	andeq	r0, r0, r3, asr #3
     2fc:	00040903 	andeq	r0, r4, r3, lsl #18
     300:	53030000 	movwpl	r0, #12288	; 0x3000
     304:	01000001 	tsteq	r0, r1
     308:	00071103 	andeq	r1, r7, r3, lsl #2
     30c:	e1030400 	tst	r3, r0, lsl #8
     310:	05000000 	streq	r0, [r0, #-0]
     314:	00059d03 	andeq	r9, r5, r3, lsl #26
     318:	e6030600 	str	r0, [r3], -r0, lsl #12
     31c:	07000003 	streq	r0, [r0, -r3]
     320:	00020503 	andeq	r0, r2, r3, lsl #10
     324:	14030300 	strne	r0, [r3], #-768	; 0x300
     328:	02000002 	andeq	r0, r0, #2
     32c:	00042c03 	andeq	r2, r4, r3, lsl #24
     330:	04000800 	streq	r0, [r0], #-2048	; 0x800
     334:	00000308 	andeq	r0, r0, r8, lsl #6
     338:	82744f01 	rsbshi	r4, r4, #1, 30
     33c:	010c0000 	mrseq	r0, (UNDEF: 12)
     340:	9c010000 	stcls	0, cr0, [r1], {-0}
     344:	0000021f 	andeq	r0, r0, pc, lsl r2
     348:	6e697005 	cdpvs	0, 6, cr7, cr9, cr5, {0}
     34c:	1f4f0100 	svcne	0x004f0100
     350:	02000002 	andeq	r0, r0, #2
     354:	92066491 	andls	r6, r6, #-1862270976	; 0x91000000
     358:	01000001 	tsteq	r0, r1
     35c:	00021f4f 	andeq	r1, r2, pc, asr #30
     360:	60910200 	addsvs	r0, r1, r0, lsl #4
     364:	00036e07 	andeq	r6, r3, r7, lsl #28
     368:	1f510100 	svcne	0x00510100
     36c:	02000002 	andeq	r0, r0, #2
     370:	42077491 	andmi	r7, r7, #-1862270976	; 0x91000000
     374:	01000003 	tsteq	r0, r3
     378:	00021f52 	andeq	r1, r2, r2, asr pc
     37c:	70910200 	addsvc	r0, r1, r0, lsl #4
     380:	00095d07 	andeq	r5, r9, r7, lsl #26
     384:	26530100 	ldrbcs	r0, [r3], -r0, lsl #2
     388:	02000002 	andeq	r0, r0, #2
     38c:	08006c91 	stmdaeq	r0, {r0, r4, r7, sl, fp, sp, lr}
     390:	6e690504 	cdpvs	5, 6, cr0, cr9, cr4, {0}
     394:	04090074 	streq	r0, [r9], #-116	; 0x74
     398:	0000022c 	andeq	r0, r0, ip, lsr #4
     39c:	00021f0a 	andeq	r1, r2, sl, lsl #30
     3a0:	07200400 	streq	r0, [r0, -r0, lsl #8]!
     3a4:	5f010000 	svcpl	0x00010000
     3a8:	00008380 	andeq	r8, r0, r0, lsl #7
     3ac:	000000a4 	andeq	r0, r0, r4, lsr #1
     3b0:	029b9c01 	addseq	r9, fp, #256	; 0x100
     3b4:	70050000 	andvc	r0, r5, r0
     3b8:	01006e69 	tsteq	r0, r9, ror #28
     3bc:	00021f5f 	andeq	r1, r2, pc, asr pc
     3c0:	64910200 	ldrvs	r0, [r1], #512	; 0x200
     3c4:	00034d06 	andeq	r4, r3, r6, lsl #26
     3c8:	1f5f0100 	svcne	0x005f0100
     3cc:	02000002 	andeq	r0, r0, #2
     3d0:	84076091 	strhi	r6, [r7], #-145	; 0x91
     3d4:	01000004 	tsteq	r0, r4
     3d8:	00021f61 	andeq	r1, r2, r1, ror #30
     3dc:	74910200 	ldrvc	r0, [r1], #512	; 0x200
     3e0:	00042207 	andeq	r2, r4, r7, lsl #4
     3e4:	1f620100 	svcne	0x00620100
     3e8:	02000002 	andeq	r0, r0, #2
     3ec:	5d077091 	stcpl	0, cr7, [r7, #-580]	; 0xfffffdbc
     3f0:	01000009 	tsteq	r0, r9
     3f4:	00022664 	andeq	r2, r2, r4, ror #12
     3f8:	6c910200 	lfmvs	f0, 4, [r1], {0}
     3fc:	00052c07 	andeq	r2, r5, r7, lsl #24
     400:	1f650100 	svcne	0x00650100
     404:	02000002 	andeq	r0, r0, #2
     408:	0b006891 	bleq	1a654 <__bss_end__+0xf694>
     40c:	00000174 	andeq	r0, r0, r4, ror r1
     410:	02d17401 	sbcseq	r7, r1, #16777216	; 0x1000000
     414:	84240000 	strthi	r0, [r4], #-0
     418:	00ac0000 	adceq	r0, ip, r0
     41c:	9c010000 	stcls	0, cr0, [r1], {-0}
     420:	000002d1 	ldrdeq	r0, [r0], -r1
     424:	6e697005 	cdpvs	0, 6, cr7, cr9, cr5, {0}
     428:	d1740100 	cmnle	r4, r0, lsl #2
     42c:	02000002 	andeq	r0, r0, #2
     430:	760c6c91 			; <UNDEFINED> instruction: 0x760c6c91
     434:	01006c61 	tsteq	r0, r1, ror #24
     438:	0002d175 	andeq	sp, r2, r5, ror r1
     43c:	74910200 	ldrvc	r0, [r1], #512	; 0x200
     440:	07040d00 	streq	r0, [r4, -r0, lsl #26]
     444:	000000a1 	andeq	r0, r0, r1, lsr #1
     448:	00023c0b 	andeq	r3, r2, fp, lsl #24
     44c:	d18a0100 	orrle	r0, sl, r0, lsl #2
     450:	d0000002 	andle	r0, r0, r2
     454:	5c000084 	stcpl	0, cr0, [r0], {132}	; 0x84
     458:	01000000 	mrseq	r0, (UNDEF: 0)
     45c:	00030e9c 	muleq	r3, ip, lr
     460:	69700500 	ldmdbvs	r0!, {r8, sl}^
     464:	8a01006e 	bhi	40624 <__bss_end__+0x35664>
     468:	000002d1 	ldrdeq	r0, [r0], -r1
     46c:	076c9102 	strbeq	r9, [ip, -r2, lsl #2]!
     470:	00000367 	andeq	r0, r0, r7, ror #6
     474:	02d18b01 	sbcseq	r8, r1, #1024	; 0x400
     478:	91020000 	mrsls	r0, (UNDEF: 2)
     47c:	d10b0074 	tstle	fp, r4, ror r0
     480:	01000006 	tsteq	r0, r6
     484:	0002d18f 	andeq	sp, r2, pc, lsl #3
     488:	00852c00 	addeq	r2, r5, r0, lsl #24
     48c:	00004000 	andeq	r4, r0, r0
     490:	369c0100 	ldrcc	r0, [ip], r0, lsl #2
     494:	05000003 	streq	r0, [r0, #-3]
     498:	006e6970 	rsbeq	r6, lr, r0, ror r9
     49c:	02d18f01 	sbcseq	r8, r1, #1, 30
     4a0:	91020000 	mrsls	r0, (UNDEF: 2)
     4a4:	150e0074 	strne	r0, [lr, #-116]	; 0x74
     4a8:	01000005 	tsteq	r0, r5
     4ac:	0002d197 	muleq	r2, r7, r1
     4b0:	00856c00 	addeq	r6, r5, r0, lsl #24
     4b4:	00003800 	andeq	r3, r0, r0, lsl #16
     4b8:	5e9c0100 	fmlple	f0, f4, f0
     4bc:	05000003 	streq	r0, [r0, #-3]
     4c0:	006e6970 	rsbeq	r6, lr, r0, ror r9
     4c4:	021f9701 	andseq	r9, pc, #262144	; 0x40000
     4c8:	91020000 	mrsls	r0, (UNDEF: 2)
     4cc:	bd0f0074 	stclt	0, cr0, [pc, #-464]	; 304 <_start-0x7cfc>
     4d0:	01000002 	tsteq	r0, r2
     4d4:	0002d19b 	muleq	r2, fp, r1
     4d8:	0085a400 	addeq	sl, r5, r0, lsl #8
     4dc:	00002c00 	andeq	r2, r0, r0, lsl #24
     4e0:	869c0100 	ldrhi	r0, [ip], r0, lsl #2
     4e4:	05000003 	streq	r0, [r0, #-3]
     4e8:	006e6970 	rsbeq	r6, lr, r0, ror r9
     4ec:	02d19b01 	sbcseq	r9, r1, #1024	; 0x400
     4f0:	91020000 	mrsls	r0, (UNDEF: 2)
     4f4:	230b0074 	movwcs	r0, #45172	; 0xb074
     4f8:	01000002 	tsteq	r0, r2
     4fc:	0002d19f 	muleq	r2, pc, r1	; <UNPREDICTABLE>
     500:	0085d000 	addeq	sp, r5, r0
     504:	00004000 	andeq	r4, r0, r0
     508:	ae9c0100 	fmlgee	f0, f4, f0
     50c:	05000003 	streq	r0, [r0, #-3]
     510:	006e6970 	rsbeq	r6, lr, r0, ror r9
     514:	02d19f01 	sbcseq	r9, r1, #1, 30
     518:	91020000 	mrsls	r0, (UNDEF: 2)
     51c:	100f0074 	andne	r0, pc, r4, ror r0	; <UNPREDICTABLE>
     520:	01000003 	tsteq	r0, r3
     524:	0002d1a7 	andeq	sp, r2, r7, lsr #3
     528:	00861000 	addeq	r1, r6, r0
     52c:	00002c00 	andeq	r2, r0, r0, lsl #24
     530:	d69c0100 	ldrle	r0, [ip], r0, lsl #2
     534:	05000003 	streq	r0, [r0, #-3]
     538:	006e6970 	rsbeq	r6, lr, r0, ror r9
     53c:	02d1a701 	sbcseq	sl, r1, #262144	; 0x40000
     540:	91020000 	mrsls	r0, (UNDEF: 2)
     544:	690b0074 	stmdbvs	fp, {r2, r4, r5, r6}
     548:	01000004 	tsteq	r0, r4
     54c:	0002d1ab 	andeq	sp, r2, fp, lsr #3
     550:	00863c00 	addeq	r3, r6, r0, lsl #24
     554:	00004000 	andeq	r4, r0, r0
     558:	fe9c0100 	cdp2	1, 9, cr0, cr12, cr0, {0}
     55c:	05000003 	streq	r0, [r0, #-3]
     560:	006e6970 	rsbeq	r6, lr, r0, ror r9
     564:	02d1ab01 	sbcseq	sl, r1, #1024	; 0x400
     568:	91020000 	mrsls	r0, (UNDEF: 2)
     56c:	ac0f0074 	stcge	0, cr0, [pc], {116}	; 0x74
     570:	01000005 	tsteq	r0, r5
     574:	0002d1b3 			; <UNDEFINED> instruction: 0x0002d1b3
     578:	00867c00 	addeq	r7, r6, r0, lsl #24
     57c:	00002c00 	andeq	r2, r0, r0, lsl #24
     580:	269c0100 	ldrcs	r0, [ip], r0, lsl #2
     584:	05000004 	streq	r0, [r0, #-4]
     588:	006e6970 	rsbeq	r6, lr, r0, ror r9
     58c:	02d1b301 	sbcseq	fp, r1, #67108864	; 0x4000000
     590:	91020000 	mrsls	r0, (UNDEF: 2)
     594:	270b0074 	smlsdxcs	fp, r4, r0, r0
     598:	01000003 	tsteq	r0, r3
     59c:	0002d1b7 			; <UNDEFINED> instruction: 0x0002d1b7
     5a0:	0086a800 	addeq	sl, r6, r0, lsl #16
     5a4:	00004000 	andeq	r4, r0, r0
     5a8:	4e9c0100 	fmlmie	f0, f4, f0
     5ac:	05000004 	streq	r0, [r0, #-4]
     5b0:	006e6970 	rsbeq	r6, lr, r0, ror r9
     5b4:	02d1b701 	sbcseq	fp, r1, #262144	; 0x40000
     5b8:	91020000 	mrsls	r0, (UNDEF: 2)
     5bc:	0f0f0074 	svceq	0x000f0074
     5c0:	01000001 	tsteq	r0, r1
     5c4:	0002d1bf 			; <UNDEFINED> instruction: 0x0002d1bf
     5c8:	0086e800 	addeq	lr, r6, r0, lsl #16
     5cc:	00002c00 	andeq	r2, r0, r0, lsl #24
     5d0:	769c0100 	ldrvc	r0, [ip], r0, lsl #2
     5d4:	05000004 	streq	r0, [r0, #-4]
     5d8:	006e6970 	rsbeq	r6, lr, r0, ror r9
     5dc:	02d1bf01 	sbcseq	fp, r1, #1, 30
     5e0:	91020000 	mrsls	r0, (UNDEF: 2)
     5e4:	f40b0074 	vst4.16	{d0-d3}, [fp :256], r4
     5e8:	01000006 	tsteq	r0, r6
     5ec:	0002d1c4 	andeq	sp, r2, r4, asr #3
     5f0:	00871400 	addeq	r1, r7, r0, lsl #8
     5f4:	00004000 	andeq	r4, r0, r0
     5f8:	9e9c0100 	fmllse	f0, f4, f0
     5fc:	05000004 	streq	r0, [r0, #-4]
     600:	006e6970 	rsbeq	r6, lr, r0, ror r9
     604:	02d1c401 	sbcseq	ip, r1, #16777216	; 0x1000000
     608:	91020000 	mrsls	r0, (UNDEF: 2)
     60c:	530f0074 	movwpl	r0, #61556	; 0xf074
     610:	01000003 	tsteq	r0, r3
     614:	0002d1cc 	andeq	sp, r2, ip, asr #3
     618:	00875400 	addeq	r5, r7, r0, lsl #8
     61c:	00002c00 	andeq	r2, r0, r0, lsl #24
     620:	c69c0100 	ldrgt	r0, [ip], r0, lsl #2
     624:	05000004 	streq	r0, [r0, #-4]
     628:	006e6970 	rsbeq	r6, lr, r0, ror r9
     62c:	02d1cc01 	sbcseq	ip, r1, #256	; 0x100
     630:	91020000 	mrsls	r0, (UNDEF: 2)
     634:	280b0074 	stmdacs	fp, {r2, r4, r5, r6}
     638:	01000001 	tsteq	r0, r1
     63c:	0002d1d0 	ldrdeq	sp, [r2], -r0
     640:	00878000 	addeq	r8, r7, r0
     644:	00004000 	andeq	r4, r0, r0
     648:	ee9c0100 	fmle	f0, f4, f0
     64c:	05000004 	streq	r0, [r0, #-4]
     650:	006e6970 	rsbeq	r6, lr, r0, ror r9
     654:	02d1d001 	sbcseq	sp, r1, #1
     658:	91020000 	mrsls	r0, (UNDEF: 2)
     65c:	fb0f0074 	blx	3c0836 <__bss_end__+0x3b5876>
     660:	01000004 	tsteq	r0, r4
     664:	0002d1d8 	ldrdeq	sp, [r2], -r8
     668:	0087c000 	addeq	ip, r7, r0
     66c:	00002c00 	andeq	r2, r0, r0, lsl #24
     670:	169c0100 	ldrne	r0, [ip], r0, lsl #2
     674:	05000005 	streq	r0, [r0, #-5]
     678:	006e6970 	rsbeq	r6, lr, r0, ror r9
     67c:	02d1d801 	sbcseq	sp, r1, #65536	; 0x10000
     680:	91020000 	mrsls	r0, (UNDEF: 2)
     684:	9c100074 	ldcls	0, cr0, [r0], {116}	; 0x74
     688:	0100000c 	tsteq	r0, ip
     68c:	0087ecdd 	ldrdeq	lr, [r7], sp
     690:	00001800 	andeq	r1, r0, r0, lsl #16
     694:	0b9c0100 	bleq	fe700a9c <__bss_end__+0xfe6f5adc>
     698:	00000100 	andeq	r0, r0, r0, lsl #2
     69c:	02d1e101 	sbcseq	lr, r1, #1073741824	; 0x40000000
     6a0:	88040000 	stmdahi	r4, {}	; <UNPREDICTABLE>
     6a4:	00340000 	eorseq	r0, r4, r0
     6a8:	9c010000 	stcls	0, cr0, [r1], {-0}
     6ac:	0000054f 	andeq	r0, r0, pc, asr #10
     6b0:	6e697005 	cdpvs	0, 6, cr7, cr9, cr5, {0}
     6b4:	d1e10100 	mvnle	r0, r0, lsl #2
     6b8:	02000002 	andeq	r0, r0, #2
     6bc:	0b007491 	bleq	1d908 <__bss_end__+0x12948>
     6c0:	000003f5 	strdeq	r0, [r0], -r5
     6c4:	02d1e501 	sbcseq	lr, r1, #4194304	; 0x400000
     6c8:	88380000 	ldmdahi	r8!, {}	; <UNPREDICTABLE>
     6cc:	00340000 	eorseq	r0, r4, r0
     6d0:	9c010000 	stcls	0, cr0, [r1], {-0}
     6d4:	00000575 	andeq	r0, r0, r5, ror r5
     6d8:	01006605 	tsteq	r0, r5, lsl #12
     6dc:	0002d1e5 	andeq	sp, r2, r5, ror #3
     6e0:	74910200 	ldrvc	r0, [r1], #512	; 0x200
     6e4:	06470f00 	strbeq	r0, [r7], -r0, lsl #30
     6e8:	e9010000 	stmdb	r1, {}	; <UNPREDICTABLE>
     6ec:	000002d1 	ldrdeq	r0, [r0], -r1
     6f0:	0000886c 	andeq	r8, r0, ip, ror #16
     6f4:	0000003c 	andeq	r0, r0, ip, lsr r0
     6f8:	059d9c01 	ldreq	r9, [sp, #3073]	; 0xc01
     6fc:	70050000 	andvc	r0, r5, r0
     700:	01006e69 	tsteq	r0, r9, ror #28
     704:	0002d1e9 	andeq	sp, r2, r9, ror #3
     708:	74910200 	ldrvc	r0, [r1], #512	; 0x200
     70c:	06380f00 	ldrteq	r0, [r8], -r0, lsl #30
     710:	ed010000 	stc	0, cr0, [r1, #-0]
     714:	000002d1 	ldrdeq	r0, [r0], -r1
     718:	000088a8 	andeq	r8, r0, r8, lsr #17
     71c:	0000003c 	andeq	r0, r0, ip, lsr r0
     720:	05c59c01 	strbeq	r9, [r5, #3073]	; 0xc01
     724:	70050000 	andvc	r0, r5, r0
     728:	01006e69 	tsteq	r0, r9, ror #28
     72c:	0002d1ed 	andeq	sp, r2, sp, ror #3
     730:	74910200 	ldrvc	r0, [r1], #512	; 0x200
     734:	06bf0f00 	ldrteq	r0, [pc], r0, lsl #30
     738:	f1010000 	setend	le
     73c:	000002d1 	ldrdeq	r0, [r0], -r1
     740:	000088e4 	andeq	r8, r0, r4, ror #17
     744:	00000080 	andeq	r0, r0, r0, lsl #1
     748:	06099c01 	streq	r9, [r9], -r1, lsl #24
     74c:	70050000 	andvc	r0, r5, r0
     750:	01006e69 	tsteq	r0, r9, ror #28
     754:	0002d1f1 	strdeq	sp, [r2], -r1
     758:	6c910200 	lfmvs	f0, 4, [r1], {0}
     75c:	6765720c 	strbvs	r7, [r5, -ip, lsl #4]!
     760:	d1f50100 	mvnsle	r0, r0, lsl #2
     764:	02000002 	andeq	r0, r0, #2
     768:	760c7491 			; <UNDEFINED> instruction: 0x760c7491
     76c:	01006c61 	tsteq	r0, r1, ror #24
     770:	0002d1f6 	strdeq	sp, [r2], -r6
     774:	70910200 	addsvc	r0, r1, r0, lsl #4
     778:	05c50f00 	strbeq	r0, [r5, #3840]	; 0xf00
     77c:	fc010000 	stc2	0, cr0, [r1], {-0}
     780:	000002d1 	ldrdeq	r0, [r0], -r1
     784:	00008964 	andeq	r8, r0, r4, ror #18
     788:	00000030 	andeq	r0, r0, r0, lsr r0
     78c:	06319c01 	ldrteq	r9, [r1], -r1, lsl #24
     790:	70050000 	andvc	r0, r5, r0
     794:	01006e69 	tsteq	r0, r9, ror #28
     798:	0002d1fc 	strdeq	sp, [r2], -ip
     79c:	74910200 	ldrvc	r0, [r1], #512	; 0x200
     7a0:	01641100 	cmneq	r4, r0, lsl #2
     7a4:	00010000 	andeq	r0, r1, r0
     7a8:	0002d101 	andeq	sp, r2, r1, lsl #2
     7ac:	00899400 	addeq	r9, r9, r0, lsl #8
     7b0:	00003000 	andeq	r3, r0, r0
     7b4:	5b9c0100 	blpl	fe700bbc <__bss_end__+0xfe6f5bfc>
     7b8:	12000006 	andne	r0, r0, #6
     7bc:	006e6970 	rsbeq	r6, lr, r0, ror r9
     7c0:	d1010001 	tstle	r1, r1
     7c4:	02000002 	andeq	r0, r0, #2
     7c8:	11007491 			; <UNDEFINED> instruction: 0x11007491
     7cc:	0000043e 	andeq	r0, r0, lr, lsr r4
     7d0:	d1010401 	tstle	r1, r1, lsl #8
     7d4:	c4000002 	strgt	r0, [r0], #-2
     7d8:	d4000089 	strle	r0, [r0], #-137	; 0x89
     7dc:	01000000 	mrseq	r0, (UNDEF: 0)
     7e0:	0006d09c 	muleq	r6, ip, r0
     7e4:	69701200 	ldmdbvs	r0!, {r9, ip}^
     7e8:	0401006e 	streq	r0, [r1], #-110	; 0x6e
     7ec:	0002d101 	andeq	sp, r2, r1, lsl #2
     7f0:	64910200 	ldrvs	r0, [r1], #512	; 0x200
     7f4:	0006c813 	andeq	ip, r6, r3, lsl r8
     7f8:	01040100 	mrseq	r0, (UNDEF: 20)
     7fc:	000002d1 	ldrdeq	r0, [r0], -r1
     800:	14609102 	strbtne	r9, [r0], #-258	; 0x102
     804:	00676572 	rsbeq	r6, r7, r2, ror r5
     808:	d1010901 	tstle	r1, r1, lsl #18
     80c:	02000002 	andeq	r0, r0, #2
     810:	67157491 			; <UNDEFINED> instruction: 0x67157491
     814:	01000003 	tsteq	r0, r3
     818:	02d1010a 	sbcseq	r0, r1, #-2147483646	; 0x80000002
     81c:	91020000 	mrsls	r0, (UNDEF: 2)
     820:	61761470 	cmnvs	r6, r0, ror r4
     824:	0b01006c 	bleq	409dc <__bss_end__+0x35a1c>
     828:	0002d101 	andeq	sp, r2, r1, lsl #2
     82c:	6c910200 	lfmvs	f0, 4, [r1], {0}
     830:	00030315 	andeq	r0, r3, r5, lsl r3
     834:	010e0100 	mrseq	r0, (UNDEF: 30)
     838:	000002d1 	ldrdeq	r0, [r0], -r1
     83c:	00689102 	rsbeq	r9, r8, r2, lsl #2
     840:	00027311 	andeq	r7, r2, r1, lsl r3
     844:	011a0100 	tsteq	sl, r0, lsl #2
     848:	000002d1 	ldrdeq	r0, [r0], -r1
     84c:	00008a98 	muleq	r0, r8, sl
     850:	00000064 	andeq	r0, r0, r4, rrx
     854:	07189c01 	ldreq	r9, [r8, -r1, lsl #24]
     858:	70120000 	andsvc	r0, r2, r0
     85c:	01006e69 	tsteq	r0, r9, ror #28
     860:	02d1011a 	sbcseq	r0, r1, #-2147483642	; 0x80000006
     864:	91020000 	mrsls	r0, (UNDEF: 2)
     868:	6572146c 	ldrbvs	r1, [r2, #-1132]!	; 0x46c
     86c:	1b010067 	blne	40a10 <__bss_end__+0x35a50>
     870:	0002d101 	andeq	sp, r2, r1, lsl #2
     874:	74910200 	ldrvc	r0, [r1], #512	; 0x200
     878:	6c617614 	stclvs	6, cr7, [r1], #-80	; 0xffffffb0
     87c:	011d0100 	tsteq	sp, r0, lsl #2
     880:	000002d1 	ldrdeq	r0, [r0], -r1
     884:	00709102 	rsbseq	r9, r0, r2, lsl #2
     888:	00014416 	andeq	r4, r1, r6, lsl r4
     88c:	01230100 	teqeq	r3, r0, lsl #2
     890:	00008afc 	strdeq	r8, [r0], -ip
     894:	00000094 	muleq	r0, r4, r0
     898:	077a9c01 	ldrbeq	r9, [sl, -r1, lsl #24]!
     89c:	70120000 	andsvc	r0, r2, r0
     8a0:	01006e69 	tsteq	r0, r9, ror #28
     8a4:	02d10123 	sbcseq	r0, r1, #-1073741816	; 0xc0000008
     8a8:	91020000 	mrsls	r0, (UNDEF: 2)
     8ac:	06ec1364 	strbteq	r1, [ip], r4, ror #6
     8b0:	23010000 	movwcs	r0, #4096	; 0x1000
     8b4:	0002d101 	andeq	sp, r2, r1, lsl #2
     8b8:	60910200 	addsvs	r0, r1, r0, lsl #4
     8bc:	67657214 			; <UNDEFINED> instruction: 0x67657214
     8c0:	01240100 	teqeq	r4, r0, lsl #2
     8c4:	000002d1 	ldrdeq	r0, [r0], -r1
     8c8:	15749102 	ldrbne	r9, [r4, #-258]!	; 0x102
     8cc:	00000367 	andeq	r0, r0, r7, ror #6
     8d0:	d1012501 	tstle	r1, r1, lsl #10
     8d4:	02000002 	andeq	r0, r0, #2
     8d8:	76147091 			; <UNDEFINED> instruction: 0x76147091
     8dc:	01006c61 	tsteq	r0, r1, ror #24
     8e0:	02d1012f 	sbcseq	r0, r1, #-1073741813	; 0xc000000b
     8e4:	91020000 	mrsls	r0, (UNDEF: 2)
     8e8:	5016006c 	andspl	r0, r6, ip, rrx
     8ec:	01000004 	tsteq	r0, r4
     8f0:	8b900135 	blhi	fe400dcc <__bss_end__+0xfe3f5e0c>
     8f4:	006c0000 	rsbeq	r0, ip, r0
     8f8:	9c010000 	stcls	0, cr0, [r1], {-0}
     8fc:	000007cd 	andeq	r0, r0, sp, asr #15
     900:	6e697012 	mcrvs	0, 3, r7, cr9, cr2, {0}
     904:	01350100 	teqeq	r5, r0, lsl #2
     908:	000002d1 	ldrdeq	r0, [r0], -r1
     90c:	14649102 	strbtne	r9, [r4], #-258	; 0x102
     910:	00676572 	rsbeq	r6, r7, r2, ror r5
     914:	d1013601 	tstle	r1, r1, lsl #12
     918:	02000002 	andeq	r0, r0, #2
     91c:	67157491 			; <UNDEFINED> instruction: 0x67157491
     920:	01000003 	tsteq	r0, r3
     924:	02d10137 	sbcseq	r0, r1, #-1073741811	; 0xc000000d
     928:	91020000 	mrsls	r0, (UNDEF: 2)
     92c:	61761470 	cmnvs	r6, r0, ror r4
     930:	3d01006c 	stccc	0, cr0, [r1, #-432]	; 0xfffffe50
     934:	0002d101 	andeq	sp, r2, r1, lsl #2
     938:	6c910200 	lfmvs	f0, 4, [r1], {0}
     93c:	053f1600 	ldreq	r1, [pc, #-1536]!	; 344 <_start-0x7cbc>
     940:	43010000 	movwmi	r0, #4096	; 0x1000
     944:	008bfc01 	addeq	pc, fp, r1, lsl #24
     948:	00006c00 	andeq	r6, r0, r0, lsl #24
     94c:	209c0100 	addscs	r0, ip, r0, lsl #2
     950:	12000008 	andne	r0, r0, #8
     954:	006e6970 	rsbeq	r6, lr, r0, ror r9
     958:	d1014301 	tstle	r1, r1, lsl #6
     95c:	02000002 	andeq	r0, r0, #2
     960:	72146491 	andsvc	r6, r4, #-1862270976	; 0x91000000
     964:	01006765 	tsteq	r0, r5, ror #14
     968:	02d10144 	sbcseq	r0, r1, #68, 2
     96c:	91020000 	mrsls	r0, (UNDEF: 2)
     970:	03671574 	cmneq	r7, #116, 10	; 0x1d000000
     974:	45010000 	strmi	r0, [r1, #-0]
     978:	0002d101 	andeq	sp, r2, r1, lsl #2
     97c:	70910200 	addsvc	r0, r1, r0, lsl #4
     980:	6c617614 	stclvs	6, cr7, [r1], #-80	; 0xffffffb0
     984:	014a0100 	mrseq	r0, (UNDEF: 90)
     988:	000002d1 	ldrdeq	r0, [r0], -r1
     98c:	006c9102 	rsbeq	r9, ip, r2, lsl #2
     990:	0002ac11 	andeq	sl, r2, r1, lsl ip
     994:	01500100 	cmpeq	r0, r0, lsl #2
     998:	000002d1 	ldrdeq	r0, [r0], -r1
     99c:	00008c68 	andeq	r8, r0, r8, ror #24
     9a0:	00000060 	andeq	r0, r0, r0, rrx
     9a4:	08779c01 	ldmdaeq	r7!, {r0, sl, fp, ip, pc}^
     9a8:	70120000 	andsvc	r0, r2, r0
     9ac:	01006e69 	tsteq	r0, r9, ror #28
     9b0:	02d10150 	sbcseq	r0, r1, #80, 2
     9b4:	91020000 	mrsls	r0, (UNDEF: 2)
     9b8:	65721464 	ldrbvs	r1, [r2, #-1124]!	; 0x464
     9bc:	51010067 	tstpl	r1, r7, rrx
     9c0:	0002d101 	andeq	sp, r2, r1, lsl #2
     9c4:	74910200 	ldrvc	r0, [r1], #512	; 0x200
     9c8:	00036715 	andeq	r6, r3, r5, lsl r7
     9cc:	01520100 	cmpeq	r2, r0, lsl #2
     9d0:	000002d1 	ldrdeq	r0, [r0], -r1
     9d4:	14709102 	ldrbtne	r9, [r0], #-258	; 0x102
     9d8:	006c6176 	rsbeq	r6, ip, r6, ror r1
     9dc:	d1015701 	tstle	r1, r1, lsl #14
     9e0:	02000002 	andeq	r0, r0, #2
     9e4:	11006c91 			; <UNDEFINED> instruction: 0x11006c91
     9e8:	00000258 	andeq	r0, r0, r8, asr r2
     9ec:	d1015b01 	tstle	r1, r1, lsl #22
     9f0:	c8000002 	stmdagt	r0, {r1}
     9f4:	7400008c 	strvc	r0, [r0], #-140	; 0x8c
     9f8:	01000000 	mrseq	r0, (UNDEF: 0)
     9fc:	0008dd9c 	muleq	r8, ip, sp
     a00:	69701200 	ldmdbvs	r0!, {r9, ip}^
     a04:	5b01006e 	blpl	40bc4 <__bss_end__+0x35c04>
     a08:	0002d101 	andeq	sp, r2, r1, lsl #2
     a0c:	64910200 	ldrvs	r0, [r1], #512	; 0x200
     a10:	67657214 			; <UNDEFINED> instruction: 0x67657214
     a14:	015c0100 	cmpeq	ip, r0, lsl #2
     a18:	000002d1 	ldrdeq	r0, [r0], -r1
     a1c:	15749102 	ldrbne	r9, [r4, #-258]!	; 0x102
     a20:	00000367 	andeq	r0, r0, r7, ror #6
     a24:	d1015d01 	tstle	r1, r1, lsl #26
     a28:	02000002 	andeq	r0, r0, #2
     a2c:	76147091 			; <UNDEFINED> instruction: 0x76147091
     a30:	01006c61 	tsteq	r0, r1, ror #24
     a34:	02d10162 	sbcseq	r0, r1, #-2147483624	; 0x80000018
     a38:	91020000 	mrsls	r0, (UNDEF: 2)
     a3c:	0303156c 	movweq	r1, #13676	; 0x356c
     a40:	63010000 	movwvs	r0, #4096	; 0x1000
     a44:	0002d101 	andeq	sp, r2, r1, lsl #2
     a48:	68910200 	ldmvs	r1, {r9}
     a4c:	028f1700 	addeq	r1, pc, #0, 14
     a50:	6c010000 	stcvs	0, cr0, [r1], {-0}
     a54:	0002d101 	andeq	sp, r2, r1, lsl #2
     a58:	008d3c00 	addeq	r3, sp, r0, lsl #24
     a5c:	00004000 	andeq	r4, r0, r0
     a60:	079c0100 	ldreq	r0, [ip, r0, lsl #2]
     a64:	12000009 	andne	r0, r0, #9
     a68:	006e6970 	rsbeq	r6, lr, r0, ror r9
     a6c:	d1016c01 	tstle	r1, r1, lsl #24
     a70:	02000002 	andeq	r0, r0, #2
     a74:	17007491 			; <UNDEFINED> instruction: 0x17007491
     a78:	000002e8 	andeq	r0, r0, r8, ror #5
     a7c:	d1017301 	tstle	r1, r1, lsl #6
     a80:	7c000002 	stcvc	0, cr0, [r0], {2}
     a84:	2800008d 	stmdacs	r0, {r0, r2, r3, r7}
     a88:	01000000 	mrseq	r0, (UNDEF: 0)
     a8c:	0009319c 	muleq	r9, ip, r1
     a90:	69701200 	ldmdbvs	r0!, {r9, ip}^
     a94:	7301006e 	movwvc	r0, #4206	; 0x106e
     a98:	0002d101 	andeq	sp, r2, r1, lsl #2
     a9c:	74910200 	ldrvc	r0, [r1], #512	; 0x200
     aa0:	04191600 	ldreq	r1, [r9], #-1536	; 0x600
     aa4:	77010000 	strvc	r0, [r1, -r0]
     aa8:	008da401 	addeq	sl, sp, r1, lsl #8
     aac:	0000a800 	andeq	sl, r0, r0, lsl #16
     ab0:	849c0100 	ldrhi	r0, [ip], #256	; 0x100
     ab4:	12000009 	andne	r0, r0, #9
     ab8:	006e6970 	rsbeq	r6, lr, r0, ror r9
     abc:	d1017701 	tstle	r1, r1, lsl #14
     ac0:	02000002 	andeq	r0, r0, #2
     ac4:	70126c91 	mulsvc	r2, r1, ip
     ac8:	01006475 	tsteq	r0, r5, ror r4
     acc:	02d10177 	sbcseq	r0, r1, #-1073741795	; 0xc000001d
     ad0:	91020000 	mrsls	r0, (UNDEF: 2)
     ad4:	65721468 	ldrbvs	r1, [r2, #-1128]!	; 0x468
     ad8:	7b010067 	blvc	40c7c <__bss_end__+0x35cbc>
     adc:	0002d101 	andeq	sp, r2, r1, lsl #2
     ae0:	74910200 	ldrvc	r0, [r1], #512	; 0x200
     ae4:	00036715 	andeq	r6, r3, r5, lsl r7
     ae8:	017c0100 	cmneq	ip, r0, lsl #2
     aec:	000002d1 	ldrdeq	r0, [r0], -r1
     af0:	00709102 	rsbseq	r9, r0, r2, lsl #2
     af4:	0000f016 	andeq	pc, r0, r6, lsl r0	; <UNPREDICTABLE>
     af8:	01880100 	orreq	r0, r8, r0, lsl #2
     afc:	00008e4c 	andeq	r8, r0, ip, asr #28
     b00:	00000028 	andeq	r0, r0, r8, lsr #32
     b04:	09aa9c01 	stmibeq	sl!, {r0, sl, fp, ip, pc}
     b08:	70120000 	andsvc	r0, r2, r0
     b0c:	01006e69 	tsteq	r0, r9, ror #28
     b10:	02d10188 	sbcseq	r0, r1, #136, 2	; 0x22
     b14:	91020000 	mrsls	r0, (UNDEF: 2)
     b18:	d6180074 			; <UNDEFINED> instruction: 0xd6180074
     b1c:	01000002 	tsteq	r0, r2
     b20:	8e74018c 	rpwhid	f0, f4, #4.0
     b24:	00280000 	eoreq	r0, r8, r0
     b28:	9c010000 	stcls	0, cr0, [r1], {-0}
     b2c:	6e697012 	mcrvs	0, 3, r7, cr9, cr2, {0}
     b30:	018c0100 	orreq	r0, ip, r0, lsl #2
     b34:	000002d1 	ldrdeq	r0, [r0], -r1
     b38:	00749102 	rsbseq	r9, r4, r2, lsl #2
     b3c:	00011800 	andeq	r1, r1, r0, lsl #16
     b40:	c9000400 	stmdbgt	r0, {sl}
     b44:	04000002 	streq	r0, [r0], #-2
     b48:	00007801 	andeq	r7, r0, r1, lsl #16
     b4c:	07680100 	strbeq	r0, [r8, -r0, lsl #2]!
     b50:	00370000 	eorseq	r0, r7, r0
     b54:	8e9c0000 	cdphi	0, 9, cr0, cr12, cr0, {0}
     b58:	01d00000 	bicseq	r0, r0, r0
     b5c:	01c70000 	biceq	r0, r7, r0
     b60:	3f020000 	svccc	0x00020000
     b64:	01000007 	tsteq	r0, r7
     b68:	008e9c14 	addeq	r9, lr, r4, lsl ip
     b6c:	00005400 	andeq	r5, r0, r0, lsl #8
     b70:	039c0100 	orrseq	r0, ip, #0, 2
     b74:	0000078c 	andeq	r0, r0, ip, lsl #15
     b78:	004b1d01 	subeq	r1, fp, r1, lsl #26
     b7c:	8ef00000 	cdphi	0, 15, cr0, cr0, cr0, {0}
     b80:	00280000 	eoreq	r0, r8, r0
     b84:	9c010000 	stcls	0, cr0, [r1], {-0}
     b88:	a1070404 	tstge	r7, r4, lsl #8
     b8c:	05000000 	streq	r0, [r0, #-0]
     b90:	0000072e 	andeq	r0, r0, lr, lsr #14
     b94:	8f182101 	svchi	0x00182101
     b98:	00580000 	subseq	r0, r8, r0
     b9c:	9c010000 	stcls	0, cr0, [r1], {-0}
     ba0:	00000076 	andeq	r0, r0, r6, ror r0
     ba4:	000d1906 	andeq	r1, sp, r6, lsl #18
     ba8:	4b210100 	blmi	840fb0 <__bss_end__+0x835ff0>
     bac:	02000000 	andeq	r0, r0, #0
     bb0:	05007491 	streq	r7, [r0, #-1169]	; 0x491
     bb4:	0000077d 	andeq	r0, r0, sp, ror r7
     bb8:	8f702901 	svchi	0x00702901
     bbc:	00680000 	rsbeq	r0, r8, r0
     bc0:	9c010000 	stcls	0, cr0, [r1], {-0}
     bc4:	000000a8 	andeq	r0, r0, r8, lsr #1
     bc8:	00077006 	andeq	r7, r7, r6
     bcc:	4b290100 	blmi	a40fd4 <__bss_end__+0xa36014>
     bd0:	02000000 	andeq	r0, r0, #0
     bd4:	a7076c91 			; <UNDEFINED> instruction: 0xa7076c91
     bd8:	01000007 	tsteq	r0, r7
     bdc:	00004b2a 	andeq	r4, r0, sl, lsr #22
     be0:	74910200 	ldrvc	r0, [r1], #512	; 0x200
     be4:	074a0500 	strbeq	r0, [sl, -r0, lsl #10]
     be8:	32010000 	andcc	r0, r1, #0
     bec:	00008fd8 	ldrdeq	r8, [r0], -r8	; <UNPREDICTABLE>
     bf0:	00000094 	muleq	r0, r4, r0
     bf4:	00f29c01 	rscseq	r9, r2, r1, lsl #24
     bf8:	70060000 	andvc	r0, r6, r0
     bfc:	01000007 	tsteq	r0, r7
     c00:	00004b32 	andeq	r4, r0, r2, lsr fp
     c04:	6c910200 	lfmvs	f0, 4, [r1], {0}
     c08:	00900408 	addseq	r0, r0, r8, lsl #8
     c0c:	00005400 	andeq	r5, r0, r0, lsl #8
     c10:	07290700 	streq	r0, [r9, -r0, lsl #14]!
     c14:	36010000 	strcc	r0, [r1], -r0
     c18:	0000004b 	andeq	r0, r0, fp, asr #32
     c1c:	07749102 	ldrbeq	r9, [r4, -r2, lsl #2]!
     c20:	0000075e 	andeq	r0, r0, lr, asr r7
     c24:	004b3701 	subeq	r3, fp, r1, lsl #14
     c28:	91020000 	mrsls	r0, (UNDEF: 2)
     c2c:	07000070 	smlsdxeq	r0, r0, r0, r0
     c30:	000007af 	andeq	r0, r0, pc, lsr #15
     c34:	01030f01 	tsteq	r3, r1, lsl #30
     c38:	03050000 	movweq	r0, #20480	; 0x5000
     c3c:	0000afb8 			; <UNDEFINED> instruction: 0x0000afb8
     c40:	25080104 	strcs	r0, [r8, #-260]	; 0x104
     c44:	0700000c 	streq	r0, [r0, -ip]
     c48:	0000079a 	muleq	r0, sl, r7
     c4c:	004b1001 	subeq	r1, fp, r1
     c50:	03050000 	movweq	r0, #20480	; 0x5000
     c54:	0000afbc 			; <UNDEFINED> instruction: 0x0000afbc
     c58:	0000c200 	andeq	ip, r0, r0, lsl #4
     c5c:	57000400 	strpl	r0, [r0, -r0, lsl #8]
     c60:	04000003 	streq	r0, [r0], #-3
     c64:	00007801 	andeq	r7, r0, r1, lsl #16
     c68:	08740100 	ldmdaeq	r4!, {r8}^
     c6c:	00370000 	eorseq	r0, r7, r0
     c70:	906c0000 	rsbls	r0, ip, r0
     c74:	01580000 	cmpeq	r8, r0
     c78:	02290000 	eoreq	r0, r9, #0
     c7c:	ba020000 	blt	80c84 <__bss_end__+0x75cc4>
     c80:	01000007 	tsteq	r0, r7
     c84:	00906c03 	addseq	r6, r0, r3, lsl #24
     c88:	00004400 	andeq	r4, r0, r0, lsl #8
     c8c:	479c0100 	ldrmi	r0, [ip, r0, lsl #2]
     c90:	03000000 	movweq	r0, #0
     c94:	04010072 	streq	r0, [r1], #-114	; 0x72
     c98:	00000047 	andeq	r0, r0, r7, asr #32
     c9c:	00749102 	rsbseq	r9, r4, r2, lsl #2
     ca0:	a1070404 	tstge	r7, r4, lsl #8
     ca4:	02000000 	andeq	r0, r0, #0
     ca8:	000007da 	ldrdeq	r0, [r0], -sl
     cac:	90b00e01 	adcsls	r0, r0, r1, lsl #28
     cb0:	00500000 	subseq	r0, r0, r0
     cb4:	9c010000 	stcls	0, cr0, [r1], {-0}
     cb8:	00000070 	andeq	r0, r0, r0, ror r0
     cbc:	01007203 	tsteq	r0, r3, lsl #4
     cc0:	0000470f 	andeq	r4, r0, pc, lsl #14
     cc4:	74910200 	ldrvc	r0, [r1], #512	; 0x200
     cc8:	085b0500 	ldmdaeq	fp, {r8, sl}^
     ccc:	1b010000 	blne	40cd4 <__bss_end__+0x35d14>
     cd0:	00009100 	andeq	r9, r0, r0, lsl #2
     cd4:	00000020 	andeq	r0, r0, r0, lsr #32
     cd8:	41059c01 	tstmi	r5, r1, lsl #24
     cdc:	01000008 	tsteq	r0, r8
     ce0:	00912023 	addseq	r2, r1, r3, lsr #32
     ce4:	00002000 	andeq	r2, r0, r0
     ce8:	059c0100 	ldreq	r0, [ip, #256]	; 0x100
     cec:	000007ef 	andeq	r0, r0, pc, ror #15
     cf0:	91402901 	cmpls	r0, r1, lsl #18
     cf4:	001c0000 	andseq	r0, ip, r0
     cf8:	9c010000 	stcls	0, cr0, [r1], {-0}
     cfc:	00082505 	andeq	r2, r8, r5, lsl #10
     d00:	5c2e0100 	stfpls	f0, [lr], #-0
     d04:	1c000091 	stcne	0, cr0, [r0], {145}	; 0x91
     d08:	01000000 	mrseq	r0, (UNDEF: 0)
     d0c:	080a059c 	stmdaeq	sl, {r2, r3, r4, r7, r8, sl}
     d10:	33010000 	movwcc	r0, #4096	; 0x1000
     d14:	00009178 	andeq	r9, r0, r8, ror r1
     d18:	0000004c 	andeq	r0, r0, ip, asr #32
     d1c:	21009c01 	tstcs	r0, r1, lsl #24
     d20:	04000000 	streq	r0, [r0], #-0
     d24:	0003b300 	andeq	fp, r3, r0, lsl #6
     d28:	78010400 	stmdavc	r1, {sl}
     d2c:	01000000 	mrseq	r0, (UNDEF: 0)
     d30:	0000087d 	andeq	r0, r0, sp, ror r8
     d34:	00000037 	andeq	r0, r0, r7, lsr r0
     d38:	00000286 	andeq	r0, r0, r6, lsl #5
     d3c:	a1070402 	tstge	r7, r2, lsl #8
     d40:	00000000 	andeq	r0, r0, r0
     d44:	0000014f 	andeq	r0, r0, pc, asr #2
     d48:	03ce0004 	biceq	r0, lr, #4
     d4c:	01040000 	mrseq	r0, (UNDEF: 4)
     d50:	00000078 	andeq	r0, r0, r8, ror r0
     d54:	00088a01 	andeq	r8, r8, r1, lsl #20
     d58:	00003700 	andeq	r3, r0, r0, lsl #14
     d5c:	0091c400 	addseq	ip, r1, r0, lsl #8
     d60:	0001b800 	andeq	fp, r1, r0, lsl #16
     d64:	0002a300 	andeq	sl, r2, r0, lsl #6
     d68:	08d60200 	ldmeq	r6, {r9}^
     d6c:	012c0000 	teqeq	ip, r0
     d70:	0000b60c 	andeq	fp, r0, ip, lsl #12
     d74:	089b0300 	ldmeq	fp, {r8, r9}
     d78:	0d010000 	stceq	0, cr0, [r1, #-0]
     d7c:	000000b6 	strheq	r0, [r0], -r6
     d80:	65690400 	strbvs	r0, [r9, #-1024]!	; 0x400
     d84:	0e010072 	mcreq	0, 0, r0, cr1, cr2, {3}
     d88:	000000b6 	strheq	r0, [r0], -r6
     d8c:	69690404 	stmdbvs	r9!, {r2, sl}^
     d90:	0f010072 	svceq	0x00010072
     d94:	000000b6 	strheq	r0, [r0], -r6
     d98:	636c0408 	cmnvs	ip, #8, 8	; 0x8000000
     d9c:	10010072 	andne	r0, r1, r2, ror r0
     da0:	000000b6 	strheq	r0, [r0], -r6
     da4:	636d040c 	cmnvs	sp, #12, 8	; 0xc000000
     da8:	11010072 	tstne	r1, r2, ror r0
     dac:	000000b6 	strheq	r0, [r0], -r6
     db0:	736c0410 	cmnvc	ip, #16, 8	; 0x10000000
     db4:	12010072 	andne	r0, r1, #114	; 0x72
     db8:	000000b6 	strheq	r0, [r0], -r6
     dbc:	736d0414 	cmnvc	sp, #20, 8	; 0x14000000
     dc0:	13010072 	movwne	r0, #4210	; 0x1072
     dc4:	000000b6 	strheq	r0, [r0], -r6
     dc8:	08a00318 	stmiaeq	r0!, {r3, r4, r8, r9}
     dcc:	14010000 	strne	r0, [r1], #-0
     dd0:	000000b6 	strheq	r0, [r0], -r6
     dd4:	08c2031c 	stmiaeq	r2, {r2, r3, r4, r8, r9}^
     dd8:	15010000 	strne	r0, [r1, #-0]
     ddc:	000000b6 	strheq	r0, [r0], -r6
     de0:	08850320 	stmeq	r5, {r5, r8, r9}
     de4:	16010000 	strne	r0, [r1], -r0
     de8:	000000b6 	strheq	r0, [r0], -r6
     dec:	08bd0324 	popeq	{r2, r5, r8, r9}
     df0:	17010000 	strne	r0, [r1, -r0]
     df4:	000000b6 	strheq	r0, [r0], -r6
     df8:	04050028 	streq	r0, [r5], #-40	; 0x28
     dfc:	746e6905 	strbtvc	r6, [lr], #-2309	; 0x905
     e00:	08910600 	ldmeq	r1, {r9, sl}
     e04:	33010000 	movwcc	r0, #4096	; 0x1000
     e08:	000091c4 	andeq	r9, r0, r4, asr #3
     e0c:	000000d0 	ldrdeq	r0, [r0], -r0	; <UNPREDICTABLE>
     e10:	00e19c01 	rsceq	r9, r1, r1, lsl #24
     e14:	61070000 	mrsvs	r0, (UNDEF: 7)
     e18:	01007875 	tsteq	r0, r5, ror r8
     e1c:	0000e135 	andeq	lr, r0, r5, lsr r1
     e20:	74910200 	ldrvc	r0, [r1], #512	; 0x200
     e24:	b6040800 	strlt	r0, [r4], -r0, lsl #16
     e28:	09000000 	stmdbeq	r0, {}	; <UNPREDICTABLE>
     e2c:	000008b3 			; <UNDEFINED> instruction: 0x000008b3
     e30:	00b64a01 	adcseq	r4, r6, r1, lsl #20
     e34:	92940000 	addsls	r0, r4, #0
     e38:	004c0000 	subeq	r0, ip, r0
     e3c:	9c010000 	stcls	0, cr0, [r1], {-0}
     e40:	0008c706 	andeq	ip, r8, r6, lsl #14
     e44:	e0510100 	subs	r0, r1, r0, lsl #2
     e48:	64000092 	strvs	r0, [r0], #-146	; 0x92
     e4c:	01000000 	mrseq	r0, (UNDEF: 0)
     e50:	00011e9c 	muleq	r1, ip, lr
     e54:	00630a00 	rsbeq	r0, r3, r0, lsl #20
     e58:	011e5101 	tsteq	lr, r1, lsl #2
     e5c:	91020000 	mrsls	r0, (UNDEF: 2)
     e60:	040b0074 	streq	r0, [fp], #-116	; 0x74
     e64:	0000a107 	andeq	sl, r0, r7, lsl #2
     e68:	08a80c00 	stmiaeq	r8!, {sl, fp}
     e6c:	59010000 	stmdbpl	r1, {}	; <UNPREDICTABLE>
     e70:	00009344 	andeq	r9, r0, r4, asr #6
     e74:	00000038 	andeq	r0, r0, r8, lsr r0
     e78:	d10d9c01 	tstle	sp, r1, lsl #24
     e7c:	01000008 	tsteq	r0, r8
     e80:	00014731 	andeq	r4, r1, r1, lsr r7
     e84:	9c030500 	cfstr32ls	mvfx0, [r3], {-0}
     e88:	080000af 	stmdaeq	r0, {r0, r1, r2, r3, r5, r7}
     e8c:	00014d04 	andeq	r4, r1, r4, lsl #26
     e90:	00250e00 	eoreq	r0, r5, r0, lsl #28
     e94:	8f000000 	svchi	0x00000000
     e98:	04000005 	streq	r0, [r0], #-5
     e9c:	0004b000 	andeq	fp, r4, r0
     ea0:	78010400 	stmdavc	r1, {sl}
     ea4:	01000000 	mrseq	r0, (UNDEF: 0)
     ea8:	000009eb 	andeq	r0, r0, fp, ror #19
     eac:	00000037 	andeq	r0, r0, r7, lsr r0
     eb0:	0000937c 	andeq	r9, r0, ip, ror r3
     eb4:	00000e68 	andeq	r0, r0, r8, ror #28
     eb8:	0000030e 	andeq	r0, r0, lr, lsl #6
     ebc:	000a1102 	andeq	r1, sl, r2, lsl #2
     ec0:	30280200 	eorcc	r0, r8, r0, lsl #4
     ec4:	03000000 	movweq	r0, #0
     ec8:	00000962 	andeq	r0, r0, r2, ror #18
     ecc:	47000304 	strmi	r0, [r0, -r4, lsl #6]
     ed0:	04000000 	streq	r0, [r0], #-0
     ed4:	000009c9 	andeq	r0, r0, r9, asr #19
     ed8:	00000047 	andeq	r0, r0, r7, asr #32
     edc:	04050000 	streq	r0, [r5], #-0
     ee0:	00096402 	andeq	r6, r9, r2, lsl #8
     ee4:	25620200 	strbcs	r0, [r2, #-512]!	; 0x200
     ee8:	02000000 	andeq	r0, r0, #0
     eec:	0000091f 	andeq	r0, r0, pc, lsl r9
     ef0:	005f0d01 	subseq	r0, pc, r1, lsl #26
     ef4:	04060000 	streq	r0, [r6], #-0
     ef8:	746e6905 	strbtvc	r6, [lr], #-2309	; 0x905
     efc:	01010700 	tsteq	r1, r0, lsl #14
     f00:	00007b0e 	andeq	r7, r0, lr, lsl #22
     f04:	09a30800 	stmibeq	r3!, {fp}
     f08:	08000000 	stmdaeq	r0, {}	; <UNPREDICTABLE>
     f0c:	000009ce 	andeq	r0, r0, lr, asr #19
     f10:	59090001 	stmdbpl	r9, {r0}
     f14:	01000009 	tsteq	r0, r9
     f18:	0001111d 	andeq	r1, r1, sp, lsl r1
     f1c:	00937c00 	addseq	r7, r3, r0, lsl #24
     f20:	0003b000 	andeq	fp, r3, r0
     f24:	119c0100 	orrsne	r0, ip, r0, lsl #2
     f28:	0a000001 	beq	f34 <_start-0x70cc>
     f2c:	00667562 	rsbeq	r7, r6, r2, ror #10
     f30:	01111d01 	tsteq	r1, r1, lsl #26
     f34:	91020000 	mrsls	r0, (UNDEF: 2)
     f38:	006e0a44 	rsbeq	r0, lr, r4, asr #20
     f3c:	005f1d01 	subseq	r1, pc, r1, lsl #26
     f40:	91020000 	mrsls	r0, (UNDEF: 2)
     f44:	61760a40 	cmnvs	r6, r0, asr #20
     f48:	1d01006c 	stcne	0, cr0, [r1, #-432]	; 0xfffffe50
     f4c:	0000005f 	andeq	r0, r0, pc, asr r0
     f50:	7fbc9103 	svcvc	0x00bc9103
     f54:	00092c0b 	andeq	r2, r9, fp, lsl #24
     f58:	5f1d0100 	svcpl	0x001d0100
     f5c:	03000000 	movweq	r0, #0
     f60:	0b7fb891 	bleq	1fef1ac <__bss_end__+0x1fe41ec>
     f64:	0000095d 	andeq	r0, r0, sp, asr r9
     f68:	005f1d01 	subseq	r1, pc, r1, lsl #26
     f6c:	91020000 	mrsls	r0, (UNDEF: 2)
     f70:	0a0a0c00 	beq	283f78 <__bss_end__+0x278fb8>
     f74:	1e010000 	cdpne	0, 0, cr0, cr1, cr0, {0}
     f78:	0000011e 	andeq	r0, r0, lr, lsl r1
     f7c:	0c4c9102 	stfeqp	f1, [ip], {2}
     f80:	00000a32 	andeq	r0, r0, r2, lsr sl
     f84:	005f1f01 	subseq	r1, pc, r1, lsl #30
     f88:	91020000 	mrsls	r0, (UNDEF: 2)
     f8c:	09070c74 	stmdbeq	r7, {r2, r4, r5, r6, sl, fp}
     f90:	20010000 	andcs	r0, r1, r0
     f94:	00000054 	andeq	r0, r0, r4, asr r0
     f98:	0d709102 	ldfeqp	f1, [r0, #-8]!
     f9c:	21010069 	tstcs	r1, r9, rrx
     fa0:	0000005f 	andeq	r0, r0, pc, asr r0
     fa4:	006c9102 	rsbeq	r9, ip, r2, lsl #2
     fa8:	0117040e 	tsteq	r7, lr, lsl #8
     fac:	010f0000 	mrseq	r0, CPSR
     fb0:	000c2508 	andeq	r2, ip, r8, lsl #10
     fb4:	01171000 	tsteq	r7, r0
     fb8:	012e0000 	teqeq	lr, r0
     fbc:	2e110000 	cdpcs	0, 1, cr0, cr1, cr0, {0}
     fc0:	1f000001 	svcne	0x00000001
     fc4:	07040f00 	streq	r0, [r4, -r0, lsl #30]
     fc8:	000008e5 	andeq	r0, r0, r5, ror #17
     fcc:	000a3a12 	andeq	r3, sl, r2, lsl sl
     fd0:	11630100 	cmnne	r3, r0, lsl #2
     fd4:	2c000001 	stccs	0, cr0, [r0], {1}
     fd8:	4c000097 	stcmi	0, cr0, [r0], {151}	; 0x97
     fdc:	01000000 	mrseq	r0, (UNDEF: 0)
     fe0:	0001859c 	muleq	r1, ip, r5
     fe4:	75620a00 	strbvc	r0, [r2, #-2560]!	; 0xa00
     fe8:	63010066 	movwvs	r0, #4198	; 0x1066
     fec:	00000111 	andeq	r0, r0, r1, lsl r1
     ff0:	0a749102 	beq	1d25400 <__bss_end__+0x1d1a440>
     ff4:	6301006e 	movwvs	r0, #4206	; 0x106e
     ff8:	0000005f 	andeq	r0, r0, pc, asr r0
     ffc:	0a709102 	beq	1c2540c <__bss_end__+0x1c1a44c>
    1000:	006c6176 	rsbeq	r6, ip, r6, ror r1
    1004:	005f6301 	subseq	r6, pc, r1, lsl #6
    1008:	91020000 	mrsls	r0, (UNDEF: 2)
    100c:	092c0b6c 	stmdbeq	ip!, {r2, r3, r5, r6, r8, r9, fp}
    1010:	63010000 	movwvs	r0, #4096	; 0x1000
    1014:	0000005f 	andeq	r0, r0, pc, asr r0
    1018:	00689102 	rsbeq	r9, r8, r2, lsl #2
    101c:	00092412 	andeq	r2, r9, r2, lsl r4
    1020:	116e0100 	cmnne	lr, r0, lsl #2
    1024:	78000001 	stmdavc	r0, {r0}
    1028:	4c000097 	stcmi	0, cr0, [r0], {151}	; 0x97
    102c:	01000000 	mrseq	r0, (UNDEF: 0)
    1030:	0001d59c 	muleq	r1, ip, r5
    1034:	75620a00 	strbvc	r0, [r2, #-2560]!	; 0xa00
    1038:	6e010066 	cdpvs	0, 0, cr0, cr1, cr6, {3}
    103c:	00000111 	andeq	r0, r0, r1, lsl r1
    1040:	0a749102 	beq	1d25450 <__bss_end__+0x1d1a490>
    1044:	6e01006e 	cdpvs	0, 0, cr0, cr1, cr14, {3}
    1048:	0000005f 	andeq	r0, r0, pc, asr r0
    104c:	0a709102 	beq	1c2545c <__bss_end__+0x1c1a49c>
    1050:	006c6176 	rsbeq	r6, ip, r6, ror r1
    1054:	005f6e01 	subseq	r6, pc, r1, lsl #28
    1058:	91020000 	mrsls	r0, (UNDEF: 2)
    105c:	092c0b6c 	stmdbeq	ip!, {r2, r3, r5, r6, r8, r9, fp}
    1060:	6e010000 	cdpvs	0, 0, cr0, cr1, cr0, {0}
    1064:	0000005f 	andeq	r0, r0, pc, asr r0
    1068:	00689102 	rsbeq	r9, r8, r2, lsl #2
    106c:	0009a912 	andeq	sl, r9, r2, lsl r9
    1070:	11790100 	cmnne	r9, r0, lsl #2
    1074:	c4000001 	strgt	r0, [r0], #-1
    1078:	4c000097 	stcmi	0, cr0, [r0], {151}	; 0x97
    107c:	01000000 	mrseq	r0, (UNDEF: 0)
    1080:	0002259c 	muleq	r2, ip, r5
    1084:	75620a00 	strbvc	r0, [r2, #-2560]!	; 0xa00
    1088:	79010066 	stmdbvc	r1, {r1, r2, r5, r6}
    108c:	00000111 	andeq	r0, r0, r1, lsl r1
    1090:	0a749102 	beq	1d254a0 <__bss_end__+0x1d1a4e0>
    1094:	7901006e 	stmdbvc	r1, {r1, r2, r3, r5, r6}
    1098:	0000005f 	andeq	r0, r0, pc, asr r0
    109c:	0a709102 	beq	1c254ac <__bss_end__+0x1c1a4ec>
    10a0:	006c6176 	rsbeq	r6, ip, r6, ror r1
    10a4:	005f7901 	subseq	r7, pc, r1, lsl #18
    10a8:	91020000 	mrsls	r0, (UNDEF: 2)
    10ac:	092c0b6c 	stmdbeq	ip!, {r2, r3, r5, r6, r8, r9, fp}
    10b0:	79010000 	stmdbvc	r1, {}	; <UNPREDICTABLE>
    10b4:	0000005f 	andeq	r0, r0, pc, asr r0
    10b8:	00689102 	rsbeq	r9, r8, r2, lsl #2
    10bc:	00097a12 	andeq	r7, r9, r2, lsl sl
    10c0:	5f850100 	svcpl	0x00850100
    10c4:	10000000 	andne	r0, r0, r0
    10c8:	50000098 	mulpl	r0, r8, r0
    10cc:	01000000 	mrseq	r0, (UNDEF: 0)
    10d0:	0002819c 	muleq	r2, ip, r1
    10d4:	00730a00 	rsbseq	r0, r3, r0, lsl #20
    10d8:	01118501 	tsteq	r1, r1, lsl #10
    10dc:	91020000 	mrsls	r0, (UNDEF: 2)
    10e0:	006e0a64 	rsbeq	r0, lr, r4, ror #20
    10e4:	005f8501 	subseq	r8, pc, r1, lsl #10
    10e8:	91020000 	mrsls	r0, (UNDEF: 2)
    10ec:	09520b60 	ldmdbeq	r2, {r5, r6, r8, r9, fp}^
    10f0:	85010000 	strhi	r0, [r1, #-0]
    10f4:	00000281 	andeq	r0, r0, r1, lsl #5
    10f8:	13789102 	cmnne	r8, #-2147483648	; 0x80000000
    10fc:	0070610d 	rsbseq	r6, r0, sp, lsl #2
    1100:	00498601 	subeq	r8, r9, r1, lsl #12
    1104:	91020000 	mrsls	r0, (UNDEF: 2)
    1108:	0a2b0c68 	beq	ac42b0 <__bss_end__+0xab92f0>
    110c:	88010000 	stmdahi	r1, {}	; <UNPREDICTABLE>
    1110:	0000005f 	andeq	r0, r0, pc, asr r0
    1114:	006c9102 	rsbeq	r9, ip, r2, lsl #2
    1118:	0287040e 	addeq	r0, r7, #234881024	; 0xe000000
    111c:	17140000 	ldrne	r0, [r4, -r0]
    1120:	12000001 	andne	r0, r0, #1
    1124:	000008db 	ldrdeq	r0, [r0], -fp
    1128:	005f9301 	subseq	r9, pc, r1, lsl #6
    112c:	98600000 	stmdals	r0!, {}^	; <UNPREDICTABLE>
    1130:	030c0000 	movweq	r0, #49152	; 0xc000
    1134:	9c010000 	stcls	0, cr0, [r1], {-0}
    1138:	0000033e 	andeq	r0, r0, lr, lsr r3
    113c:	0009520b 	andeq	r5, r9, fp, lsl #4
    1140:	81930100 	orrshi	r0, r3, r0, lsl #2
    1144:	03000002 	movweq	r0, #2
    1148:	0a7fb491 	beq	1fee394 <__bss_end__+0x1fe33d4>
    114c:	01007061 	tsteq	r0, r1, rrx
    1150:	00004993 	muleq	r0, r3, r9
    1154:	b0910300 	addslt	r0, r1, r0, lsl #6
    1158:	0a420c7f 	beq	108435c <__bss_end__+0x107939c>
    115c:	95010000 	strls	r0, [r1, #-0]
    1160:	0000005f 	andeq	r0, r0, pc, asr r0
    1164:	0c749102 	ldfeqp	f1, [r4], #-8
    1168:	00000949 	andeq	r0, r0, r9, asr #18
    116c:	01179601 	tsteq	r7, r1, lsl #12
    1170:	91020000 	mrsls	r0, (UNDEF: 2)
    1174:	098b0c73 	stmibeq	fp, {r0, r1, r4, r5, r6, sl, fp}
    1178:	97010000 	strls	r0, [r1, -r0]
    117c:	0000033e 	andeq	r0, r0, lr, lsr r3
    1180:	7fb89103 	svcvc	0x00b89103
    1184:	0009ff0c 	andeq	pc, r9, ip, lsl #30
    1188:	11980100 	orrsne	r0, r8, r0, lsl #2
    118c:	02000001 	andeq	r0, r0, #1
    1190:	a8156c91 	ldmdage	r5, {r0, r4, r7, sl, fp, sp, lr}
    1194:	88000098 	stmdahi	r0, {r3, r4, r7}
    1198:	0c000002 	stceq	0, cr0, [r0], {2}
    119c:	0000092c 	andeq	r0, r0, ip, lsr #18
    11a0:	005fa001 	subseq	sl, pc, r1
    11a4:	91020000 	mrsls	r0, (UNDEF: 2)
    11a8:	0a200c68 	beq	804350 <__bss_end__+0x7f9390>
    11ac:	a1010000 	mrsge	r0, (UNDEF: 1)
    11b0:	00000054 	andeq	r0, r0, r4, asr r0
    11b4:	0c649102 	stfeqp	f1, [r4], #-8
    11b8:	0000096c 	andeq	r0, r0, ip, ror #18
    11bc:	0111ae01 	tsteq	r1, r1, lsl #28
    11c0:	91020000 	mrsls	r0, (UNDEF: 2)
    11c4:	09f40c60 	ldmibeq	r4!, {r5, r6, sl, fp}^
    11c8:	af010000 	svcge	0x00010000
    11cc:	0000005f 	andeq	r0, r0, pc, asr r0
    11d0:	005c9102 	subseq	r9, ip, r2, lsl #2
    11d4:	01171000 	tsteq	r7, r0
    11d8:	034e0000 	movteq	r0, #57344	; 0xe000
    11dc:	2e110000 	cdpcs	0, 1, cr0, cr1, cr0, {0}
    11e0:	20000001 	andcs	r0, r0, r1
    11e4:	09b11200 	ldmibeq	r1!, {r9, ip}
    11e8:	ea010000 	b	411f0 <__bss_end__+0x36230>
    11ec:	0000005f 	andeq	r0, r0, pc, asr r0
    11f0:	00009b6c 	andeq	r9, r0, ip, ror #22
    11f4:	000004a8 	andeq	r0, r0, r8, lsr #9
    11f8:	04779c01 	ldrbteq	r9, [r7], #-3073	; 0xc01
    11fc:	730a0000 	movwvc	r0, #40960	; 0xa000
    1200:	11ea0100 	mvnne	r0, r0, lsl #2
    1204:	03000001 	movweq	r0, #1
    1208:	0a7fa491 	beq	1fea454 <__bss_end__+0x1fdf494>
    120c:	ea01006e 	b	413cc <__bss_end__+0x3640c>
    1210:	0000005f 	andeq	r0, r0, pc, asr r0
    1214:	7fa09103 	svcvc	0x00a09103
    1218:	0009520b 	andeq	r5, r9, fp, lsl #4
    121c:	81ea0100 	mvnhi	r0, r0, lsl #2
    1220:	03000002 	movweq	r0, #2
    1224:	0a7f9c91 	beq	1fe8470 <__bss_end__+0x1fdd4b0>
    1228:	01007061 	tsteq	r0, r1, rrx
    122c:	000049ea 	andeq	r4, r0, sl, ror #19
    1230:	98910300 	ldmls	r1, {r8, r9}
    1234:	093e0c7f 	ldmdbeq	lr!, {r0, r1, r2, r3, r4, r5, r6, sl, fp}
    1238:	ec010000 	stc	0, cr0, [r1], {-0}
    123c:	00000477 	andeq	r0, r0, r7, ror r4
    1240:	7fb09104 	svcvc	0x00b09104
    1244:	099c0c06 	ldmibeq	ip, {r1, r2, sl, fp}
    1248:	ed010000 	stc	0, cr0, [r1, #-0]
    124c:	0000005f 	andeq	r0, r0, pc, asr r0
    1250:	0c5c9102 	ldfeqp	f1, [ip], {2}
    1254:	00000949 	andeq	r0, r0, r9, asr #18
    1258:	0117ee01 	tsteq	r7, r1, lsl #28
    125c:	91020000 	mrsls	r0, (UNDEF: 2)
    1260:	0a4e165b 	beq	1386bd4 <__bss_end__+0x137bc14>
    1264:	3b010000 	blcc	4126c <__bss_end__+0x362ac>
    1268:	00005f01 	andeq	r5, r0, r1, lsl #30
    126c:	bc910300 	ldclt	3, cr0, [r1], {0}
    1270:	08f9167f 	ldmeq	r9!, {r0, r1, r2, r3, r4, r5, r6, r9, sl, ip}^
    1274:	3c010000 	stccc	0, cr0, [r1], {-0}
    1278:	00011101 	andeq	r1, r1, r1, lsl #2
    127c:	b8910300 	ldmlt	r1, {r8, r9}
    1280:	9c30157f 	cfldr32ls	mvfx1, [r0], #-508	; 0xfffffe04
    1284:	02e80000 	rsceq	r0, r8, #0
    1288:	2c0c0000 	stccs	0, cr0, [ip], {-0}
    128c:	01000009 	tsteq	r0, r9
    1290:	00005ff7 	strdeq	r5, [r0], -r7
    1294:	54910200 	ldrpl	r0, [r1], #512	; 0x200
    1298:	000a200c 	andeq	r2, sl, ip
    129c:	54f80100 	ldrbtpl	r0, [r8], #256	; 0x100
    12a0:	02000000 	andeq	r0, r0, #0
    12a4:	6c165091 	ldcvs	0, cr5, [r6], {145}	; 0x91
    12a8:	01000009 	tsteq	r0, r9
    12ac:	01110105 	tsteq	r1, r5, lsl #2
    12b0:	91020000 	mrsls	r0, (UNDEF: 2)
    12b4:	09f4164c 	ldmibeq	r4!, {r2, r3, r6, r9, sl, ip}^
    12b8:	06010000 	streq	r0, [r1], -r0
    12bc:	00005f01 	andeq	r5, r0, r1, lsl #30
    12c0:	a8910300 	ldmge	r1, {r8, r9}
    12c4:	09d3167f 	ldmibeq	r3, {r0, r1, r2, r3, r4, r5, r6, r9, sl, ip}^
    12c8:	07010000 	streq	r0, [r1, -r0]
    12cc:	00011701 	andeq	r1, r1, r1, lsl #14
    12d0:	af910300 	svcge	0x00910300
    12d4:	9d28157f 	cfstr32ls	mvfx1, [r8, #-508]!	; 0xfffffe04
    12d8:	01f00000 	mvnseq	r0, r0
    12dc:	df160000 	svcle	0x00160000
    12e0:	01000009 	tsteq	r0, r9
    12e4:	0111011b 	tsteq	r1, fp, lsl r1
    12e8:	91020000 	mrsls	r0, (UNDEF: 2)
    12ec:	09bd1648 	ldmibeq	sp!, {r3, r6, r9, sl, ip}
    12f0:	24010000 	strcs	r0, [r1], #-0
    12f4:	00011101 	andeq	r1, r1, r1, lsl #2
    12f8:	44910200 	ldrmi	r0, [r1], #512	; 0x200
    12fc:	00093216 	andeq	r3, r9, r6, lsl r2
    1300:	012d0100 	teqeq	sp, r0, lsl #2
    1304:	00000111 	andeq	r0, r0, r1, lsl r1
    1308:	00409102 	subeq	r9, r0, r2, lsl #2
    130c:	17100000 	ldrne	r0, [r0, -r0]
    1310:	8b000001 	blhi	131c <_start-0x6ce4>
    1314:	17000004 	strne	r0, [r0, -r4]
    1318:	0000012e 	andeq	r0, r0, lr, lsr #2
    131c:	7fb49104 	svcvc	0x00b49104
    1320:	18180006 	ldmdane	r8, {r1, r2}
    1324:	01000009 	tsteq	r0, r9
    1328:	005f0153 	subseq	r0, pc, r3, asr r1	; <UNPREDICTABLE>
    132c:	a0140000 	andsge	r0, r4, r0
    1330:	01040000 	mrseq	r0, (UNDEF: 4)
    1334:	9c010000 	stcls	0, cr0, [r1], {-0}
    1338:	000004f3 	strdeq	r0, [r0], -r3
    133c:	00095219 	andeq	r5, r9, r9, lsl r2
    1340:	01530100 	cmpeq	r3, r0, lsl #2
    1344:	00000281 	andeq	r0, r0, r1, lsl #5
    1348:	13709102 	cmnne	r0, #-2147483648	; 0x80000000
    134c:	0070611a 	rsbseq	r6, r0, sl, lsl r1
    1350:	49015501 	stmdbmi	r1, {r0, r8, sl, ip, lr}
    1354:	03000000 	movweq	r0, #0
    1358:	167fbc91 			; <UNDEFINED> instruction: 0x167fbc91
    135c:	00000983 	andeq	r0, r0, r3, lsl #19
    1360:	5f015801 	svcpl	0x00015801
    1364:	02000000 	andeq	r0, r0, #0
    1368:	621a4891 	andsvs	r4, sl, #9502720	; 0x910000
    136c:	01006675 	tsteq	r0, r5, ror r6
    1370:	04f30159 	ldrbteq	r0, [r3], #345	; 0x159
    1374:	91030000 	mrsls	r0, (UNDEF: 3)
    1378:	ee160640 	cfmsub32	mvax2, mvfx0, mvfx6, mvfx0
    137c:	01000008 	tsteq	r0, r8
    1380:	0111015e 	tsteq	r1, lr, asr r1
    1384:	91020000 	mrsls	r0, (UNDEF: 2)
    1388:	1710004c 	ldrne	r0, [r0, -ip, asr #32]
    138c:	06000001 	streq	r0, [r0], -r1
    1390:	17000005 	strne	r0, [r0, -r5]
    1394:	0000012e 	andeq	r0, r0, lr, lsr #2
    1398:	06449103 	strbeq	r9, [r4], -r3, lsl #2
    139c:	09101800 	ldmdbeq	r0, {fp, ip}
    13a0:	68010000 	stmdavs	r1, {}	; <UNPREDICTABLE>
    13a4:	00011101 	andeq	r1, r1, r1, lsl #2
    13a8:	00a11800 	adceq	r1, r1, r0, lsl #16
    13ac:	0000cc00 	andeq	ip, r0, r0, lsl #24
    13b0:	5e9c0100 	fmlple	f0, f4, f0
    13b4:	19000005 	stmdbne	r0, {r0, r2}
    13b8:	00000952 	andeq	r0, r0, r2, asr r9
    13bc:	81016801 	tsthi	r1, r1, lsl #16
    13c0:	02000002 	andeq	r0, r0, #2
    13c4:	1a137091 	bne	4dd610 <__bss_end__+0x4d2650>
    13c8:	01007061 	tsteq	r0, r1, rrx
    13cc:	0049016a 	subeq	r0, r9, sl, ror #2
    13d0:	91020000 	mrsls	r0, (UNDEF: 2)
    13d4:	09831640 	stmibeq	r3, {r6, r9, sl, ip}
    13d8:	6d010000 	stcvs	0, cr0, [r1, #-0]
    13dc:	00005f01 	andeq	r5, r0, r1, lsl #30
    13e0:	4c910200 	lfmmi	f0, 4, [r1], {0}
    13e4:	6675621a 			; <UNDEFINED> instruction: 0x6675621a
    13e8:	016e0100 	cmneq	lr, r0, lsl #2
    13ec:	0000055e 	andeq	r0, r0, lr, asr r5
    13f0:	06449103 	strbeq	r9, [r4], -r3, lsl #2
    13f4:	01171000 	tsteq	r7, r0
    13f8:	05710000 	ldrbeq	r0, [r1, #-0]!
    13fc:	2e170000 	cdpcs	0, 1, cr0, cr7, cr0, {0}
    1400:	03000001 	movweq	r0, #1
    1404:	00064891 	muleq	r6, r1, r8
    1408:	00011710 	andeq	r1, r1, r0, lsl r7
    140c:	00058100 	andeq	r8, r5, r0, lsl #2
    1410:	012e1100 	teqeq	lr, r0, lsl #2
    1414:	000f0000 	andeq	r0, pc, r0
    1418:	0009930c 	andeq	r9, r9, ip, lsl #6
    141c:	71110100 	tstvc	r1, r0, lsl #2
    1420:	05000005 	streq	r0, [r0, #-5]
    1424:	00afa003 	adceq	sl, pc, r3
    1428:	014a0000 	mrseq	r0, (UNDEF: 74)
    142c:	00040000 	andeq	r0, r4, r0
    1430:	00000616 	andeq	r0, r0, r6, lsl r6
    1434:	00780104 	rsbseq	r0, r8, r4, lsl #2
    1438:	9b010000 	blls	41440 <__bss_end__+0x36480>
    143c:	3700000a 	strcc	r0, [r0, -sl]
    1440:	e4000000 	str	r0, [r0], #-0
    1444:	fc0000a1 	stc2	0, cr0, [r0], {161}	; 0xa1
    1448:	61000001 	tstvs	r0, r1
    144c:	02000005 	andeq	r0, r0, #5
    1450:	00000a5f 	andeq	r0, r0, pc, asr sl
    1454:	00690301 	rsbeq	r0, r9, r1, lsl #6
    1458:	a1e40000 	mvnge	r0, r0
    145c:	00600000 	rsbeq	r0, r0, r0
    1460:	9c010000 	stcls	0, cr0, [r1], {-0}
    1464:	00000069 	andeq	r0, r0, r9, rrx
    1468:	000a7d03 	andeq	r7, sl, r3, lsl #26
    146c:	69030100 	stmdbvs	r3, {r8}
    1470:	02000000 	andeq	r0, r0, #0
    1474:	c0036c91 	mulgt	r3, r1, ip
    1478:	0100000a 	tsteq	r0, sl
    147c:	00006903 	andeq	r6, r0, r3, lsl #18
    1480:	68910200 	ldmvs	r1, {r9}
    1484:	000a7404 	andeq	r7, sl, r4, lsl #8
    1488:	70040100 	andvc	r0, r4, r0, lsl #2
    148c:	02000000 	andeq	r0, r0, #0
    1490:	05007491 	streq	r7, [r0, #-1169]	; 0x491
    1494:	00a10704 	adceq	r0, r1, r4, lsl #14
    1498:	04060000 	streq	r0, [r6], #-0
    149c:	746e6905 	strbtvc	r6, [lr], #-2309	; 0x905
    14a0:	0a6d0200 	beq	1b41ca8 <__bss_end__+0x1b36ce8>
    14a4:	0d010000 	stceq	0, cr0, [r1, #-0]
    14a8:	00000070 	andeq	r0, r0, r0, ror r0
    14ac:	0000a244 	andeq	sl, r0, r4, asr #4
    14b0:	000000b0 	strheq	r0, [r0], -r0	; <UNPREDICTABLE>
    14b4:	00ad9c01 	adceq	r9, sp, r1, lsl #24
    14b8:	af030000 	svcge	0x00030000
    14bc:	0100000a 	tsteq	r0, sl
    14c0:	0000ad0d 	andeq	sl, r0, sp, lsl #26
    14c4:	74910200 	ldrvc	r0, [r1], #512	; 0x200
    14c8:	000ab403 	andeq	fp, sl, r3, lsl #8
    14cc:	ad0d0100 	stfges	f0, [sp, #-0]
    14d0:	02000000 	andeq	r0, r0, #0
    14d4:	07007091 			; <UNDEFINED> instruction: 0x07007091
    14d8:	0000b304 	andeq	fp, r0, r4, lsl #6
    14dc:	08010500 	stmdaeq	r1, {r8, sl}
    14e0:	00000c25 	andeq	r0, r0, r5, lsr #24
    14e4:	000acc02 	andeq	ip, sl, r2, lsl #24
    14e8:	ad1a0100 	ldfges	f0, [sl, #-0]
    14ec:	f4000000 	vst4.8	{d0-d3}, [r0], r0
    14f0:	700000a2 	andvc	r0, r0, r2, lsr #1
    14f4:	01000000 	mrseq	r0, (UNDEF: 0)
    14f8:	0000f09c 	muleq	r0, ip, r0
    14fc:	0aa30300 	beq	fe8c2104 <__bss_end__+0xfe8b7144>
    1500:	1a010000 	bne	41508 <__bss_end__+0x36548>
    1504:	000000ad 	andeq	r0, r0, sp, lsr #1
    1508:	03749102 	cmneq	r4, #-2147483648	; 0x80000000
    150c:	00000a87 	andeq	r0, r0, r7, lsl #21
    1510:	00ad1a01 	adceq	r1, sp, r1, lsl #20
    1514:	91020000 	mrsls	r0, (UNDEF: 2)
    1518:	b9020070 	stmdblt	r2, {r4, r5, r6}
    151c:	0100000a 	tsteq	r0, sl
    1520:	00014225 	andeq	r4, r1, r5, lsr #4
    1524:	00a36400 	adceq	r6, r3, r0, lsl #8
    1528:	00007c00 	andeq	r7, r0, r0, lsl #24
    152c:	429c0100 	addsmi	r0, ip, #0, 2
    1530:	03000001 	movweq	r0, #1
    1534:	00000aa3 	andeq	r0, r0, r3, lsr #21
    1538:	01422501 	cmpeq	r2, r1, lsl #10
    153c:	91020000 	mrsls	r0, (UNDEF: 2)
    1540:	0a87036c 	beq	fe1c22f8 <__bss_end__+0xfe1b7338>
    1544:	25010000 	strcs	r0, [r1, #-0]
    1548:	000000ad 	andeq	r0, r0, sp, lsr #1
    154c:	03689102 	cmneq	r8, #-2147483648	; 0x80000000
    1550:	00000a55 	andeq	r0, r0, r5, asr sl
    1554:	00702501 	rsbseq	r2, r0, r1, lsl #10
    1558:	91020000 	mrsls	r0, (UNDEF: 2)
    155c:	0a8e0464 	beq	fe3826f4 <__bss_end__+0xfe377734>
    1560:	26010000 	strcs	r0, [r1], -r0
    1564:	00000070 	andeq	r0, r0, r0, ror r0
    1568:	00749102 	rsbseq	r9, r4, r2, lsl #2
    156c:	01480407 	cmpeq	r8, r7, lsl #8
    1570:	b3080000 	movwlt	r0, #32768	; 0x8000
    1574:	00000000 	andeq	r0, r0, r0
    1578:	0000011a 	andeq	r0, r0, sl, lsl r1
    157c:	068a0004 	streq	r0, [sl], r4
    1580:	01040000 	mrseq	r0, (UNDEF: 4)
    1584:	00000078 	andeq	r0, r0, r8, ror r0
    1588:	000b5501 	andeq	r5, fp, r1, lsl #10
    158c:	00003700 	andeq	r3, r0, r0, lsl #14
    1590:	00a4d800 	adceq	sp, r4, r0, lsl #16
    1594:	0000c400 	andeq	ip, r0, r0, lsl #8
    1598:	0005d400 	andeq	sp, r5, r0, lsl #8
    159c:	0b250200 	bleq	941da4 <__bss_end__+0x936de4>
    15a0:	01010000 	mrseq	r0, (UNDEF: 1)
    15a4:	0000a4d8 	ldrdeq	sl, [r0], -r8
    15a8:	0000001c 	andeq	r0, r0, ip, lsl r0
    15ac:	00489c01 	subeq	r9, r8, r1, lsl #24
    15b0:	70030000 	andvc	r0, r3, r0
    15b4:	01010063 	tsteq	r1, r3, rrx
    15b8:	00000048 	andeq	r0, r0, r8, asr #32
    15bc:	00749102 	rsbseq	r9, r4, r2, lsl #2
    15c0:	a1070404 	tstge	r7, r4, lsl #8
    15c4:	02000000 	andeq	r0, r0, #0
    15c8:	00000ae9 	andeq	r0, r0, r9, ror #21
    15cc:	a4f40501 	ldrbtge	r0, [r4], #1281	; 0x501
    15d0:	001c0000 	andseq	r0, ip, r0
    15d4:	9c010000 	stcls	0, cr0, [r1], {-0}
    15d8:	00000072 	andeq	r0, r0, r2, ror r0
    15dc:	00637003 	rsbeq	r7, r3, r3
    15e0:	00480501 	subeq	r0, r8, r1, lsl #10
    15e4:	91020000 	mrsls	r0, (UNDEF: 2)
    15e8:	1c020074 	stcne	0, cr0, [r2], {116}	; 0x74
    15ec:	0100000b 	tsteq	r0, fp
    15f0:	00a51006 	adceq	r1, r5, r6
    15f4:	00001c00 	andeq	r1, r0, r0, lsl #24
    15f8:	959c0100 	ldrls	r0, [ip, #256]	; 0x100
    15fc:	03000000 	movweq	r0, #0
    1600:	01006370 	tsteq	r0, r0, ror r3
    1604:	00004806 	andeq	r4, r0, r6, lsl #16
    1608:	74910200 	ldrvc	r0, [r1], #512	; 0x200
    160c:	0b480200 	bleq	1201e14 <__bss_end__+0x11f6e54>
    1610:	08010000 	stmdaeq	r1, {}	; <UNPREDICTABLE>
    1614:	0000a52c 	andeq	sl, r0, ip, lsr #10
    1618:	0000001c 	andeq	r0, r0, ip, lsl r0
    161c:	00b89c01 	adcseq	r9, r8, r1, lsl #24
    1620:	70030000 	andvc	r0, r3, r0
    1624:	08010063 	stmdaeq	r1, {r0, r1, r5, r6}
    1628:	00000048 	andeq	r0, r0, r8, asr #32
    162c:	00749102 	rsbseq	r9, r4, r2, lsl #2
    1630:	000aff02 	andeq	pc, sl, r2, lsl #30
    1634:	48090100 	stmdami	r9, {r8}
    1638:	1c0000a5 	stcne	0, cr0, [r0], {165}	; 0xa5
    163c:	01000000 	mrseq	r0, (UNDEF: 0)
    1640:	0000db9c 	muleq	r0, ip, fp
    1644:	63700300 	cmnvs	r0, #0, 6
    1648:	48090100 	stmdami	r9, {r8}
    164c:	02000000 	andeq	r0, r0, #0
    1650:	02007491 	andeq	r7, r0, #-1862270976	; 0x91000000
    1654:	00000ad3 	ldrdeq	r0, [r0], -r3
    1658:	a5640a01 	strbge	r0, [r4, #-2561]!	; 0xa01
    165c:	001c0000 	andseq	r0, ip, r0
    1660:	9c010000 	stcls	0, cr0, [r1], {-0}
    1664:	000000fe 	strdeq	r0, [r0], -lr
    1668:	00637003 	rsbeq	r7, r3, r3
    166c:	00480a01 	subeq	r0, r8, r1, lsl #20
    1670:	91020000 	mrsls	r0, (UNDEF: 2)
    1674:	36050074 			; <UNDEFINED> instruction: 0x36050074
    1678:	0100000b 	tsteq	r0, fp
    167c:	00a5800b 	adceq	r8, r5, fp
    1680:	00001c00 	andeq	r1, r0, r0, lsl #24
    1684:	039c0100 	orrseq	r0, ip, #0, 2
    1688:	01006370 	tsteq	r0, r0, ror r3
    168c:	0000480b 	andeq	r4, r0, fp, lsl #16
    1690:	74910200 	ldrvc	r0, [r1], #512	; 0x200
    1694:	04ac0000 	strteq	r0, [ip], #0
    1698:	00040000 	andeq	r0, r4, r0
    169c:	000006ea 	andeq	r0, r0, sl, ror #13
    16a0:	00780104 	rsbseq	r0, r8, r4, lsl #2
    16a4:	fd010000 	stc2	0, cr0, [r1, #-0]
    16a8:	3700000b 	strcc	r0, [r0, -fp]
    16ac:	9c000000 	stcls	0, cr0, [r0], {-0}
    16b0:	540000a5 	strpl	r0, [r0], #-165	; 0xa5
    16b4:	19000005 	stmdbne	r0, {r0, r2}
    16b8:	02000006 	andeq	r0, r0, #6
    16bc:	00000bd3 	ldrdeq	r0, [r0], -r3
    16c0:	620b0201 	andvs	r0, fp, #268435456	; 0x10000000
    16c4:	03000000 	movweq	r0, #0
    16c8:	00000ba0 	andeq	r0, r0, r0, lsr #23
    16cc:	0c2a0300 	stceq	3, cr0, [sl], #-0
    16d0:	03010000 	movweq	r0, #4096	; 0x1000
    16d4:	00000c60 	andeq	r0, r0, r0, ror #24
    16d8:	0be10300 	bleq	ff8422e0 <__bss_end__+0xff837320>
    16dc:	04010000 	streq	r0, [r1], #-0
    16e0:	00525245 	subseq	r5, r2, r5, asr #4
    16e4:	0bef037f 	bleq	ffbc24e8 <__bss_end__+0xffbb7528>
    16e8:	04000000 	streq	r0, [r0], #-0
    16ec:	00305343 	eorseq	r5, r0, r3, asr #6
    16f0:	53430400 	movtpl	r0, #13312	; 0x3400
    16f4:	00010031 	andeq	r0, r1, r1, lsr r0
    16f8:	42030105 	andmi	r0, r3, #1073741825	; 0x40000001
    16fc:	000000a1 	andeq	r0, r0, r1, lsr #1
    1700:	00040903 	andeq	r0, r4, r3, lsl #18
    1704:	53030000 	movwpl	r0, #12288	; 0x3000
    1708:	01000001 	tsteq	r0, r1
    170c:	00071103 	andeq	r1, r7, r3, lsl #2
    1710:	e1030400 	tst	r3, r0, lsl #8
    1714:	05000000 	streq	r0, [r0, #-0]
    1718:	00059d03 	andeq	r9, r5, r3, lsl #26
    171c:	e6030600 	str	r0, [r3], -r0, lsl #12
    1720:	07000003 	streq	r0, [r0, -r3]
    1724:	00020503 	andeq	r0, r2, r3, lsl #10
    1728:	14030300 	strne	r0, [r3], #-768	; 0x300
    172c:	02000002 	andeq	r0, r0, #2
    1730:	00042c03 	andeq	r2, r4, r3, lsl #24
    1734:	06000800 	streq	r0, [r0], -r0, lsl #16
    1738:	00000c6b 	andeq	r0, r0, fp, ror #24
    173c:	23180104 	tstcs	r8, #4, 2
    1740:	07000002 	streq	r0, [r0, -r2]
    1744:	01005343 	tsteq	r0, r3, asr #6
    1748:	0002231a 	andeq	r2, r2, sl, lsl r3
    174c:	1e020400 	cfcpysne	mvf0, mvf2
    1750:	0bce0800 	bleq	ff383758 <__bss_end__+0xff378798>
    1754:	1b010000 	blne	4175c <__bss_end__+0x3679c>
    1758:	00000223 	andeq	r0, r0, r3, lsr #4
    175c:	001d0104 	andseq	r0, sp, r4, lsl #2
    1760:	000baf08 	andeq	sl, fp, r8, lsl #30
    1764:	231c0100 	tstcs	ip, #0, 2
    1768:	04000002 	streq	r0, [r0], #-2
    176c:	08001c01 	stmdaeq	r0, {r0, sl, fp, ip}
    1770:	00000cc2 	andeq	r0, r0, r2, asr #25
    1774:	02231d01 	eoreq	r1, r3, #1, 26	; 0x40
    1778:	02040000 	andeq	r0, r4, #0
    177c:	b408001a 	strlt	r0, [r8], #-26
    1780:	0100000b 	tsteq	r0, fp
    1784:	0002231e 	andeq	r2, r2, lr, lsl r3
    1788:	19010400 	stmdbne	r1, {sl}
    178c:	41540700 	cmpmi	r4, r0, lsl #14
    1790:	231f0100 	tstcs	pc, #0, 2
    1794:	04000002 	streq	r0, [r0], #-2
    1798:	08001801 	stmdaeq	r0, {r0, fp, ip}
    179c:	00000b76 	andeq	r0, r0, r6, ror fp
    17a0:	02232001 	eoreq	r2, r3, #1
    17a4:	01040000 	mrseq	r0, (UNDEF: 4)
    17a8:	4a080017 	bmi	20180c <__bss_end__+0x1f684c>
    17ac:	0100000c 	tsteq	r0, ip
    17b0:	00022321 	andeq	r2, r2, r1, lsr #6
    17b4:	16010400 	strne	r0, [r1], -r0, lsl #8
    17b8:	0bea0800 	bleq	ffa837c0 <__bss_end__+0xffa78800>
    17bc:	22010000 	andcs	r0, r1, #0
    17c0:	00000223 	andeq	r0, r0, r3, lsr #4
    17c4:	00150104 	andseq	r0, r5, r4, lsl #2
    17c8:	000ca608 	andeq	sl, ip, r8, lsl #12
    17cc:	23230100 	teqcs	r3, #0, 2
    17d0:	04000002 	streq	r0, [r0], #-2
    17d4:	07001401 	streq	r1, [r0, -r1, lsl #8]
    17d8:	004e4552 	subeq	r4, lr, r2, asr r5
    17dc:	02232401 	eoreq	r2, r3, #16777216	; 0x1000000
    17e0:	01040000 	mrseq	r0, (UNDEF: 4)
    17e4:	4c070013 	stcmi	0, cr0, [r7], {19}
    17e8:	01004e45 	tsteq	r0, r5, asr #28
    17ec:	00022325 	andeq	r2, r2, r5, lsr #6
    17f0:	12010400 	andne	r0, r1, #0, 8
    17f4:	0c540800 	mrrceq	8, 0, r0, r4, cr0
    17f8:	26010000 	strcs	r0, [r1], -r0
    17fc:	00000223 	andeq	r0, r0, r3, lsr #4
    1800:	00110104 	andseq	r0, r1, r4, lsl #2
    1804:	000b9a08 	andeq	r9, fp, r8, lsl #20
    1808:	23270100 	teqcs	r7, #0, 2
    180c:	04000002 	streq	r0, [r0], #-2
    1810:	08001001 	stmdaeq	r0, {r0, ip}
    1814:	00000bc9 	andeq	r0, r0, r9, asr #23
    1818:	02232801 	eoreq	r2, r3, #65536	; 0x10000
    181c:	01040000 	mrseq	r0, (UNDEF: 4)
    1820:	5207000f 	andpl	r0, r7, #15
    1824:	01004458 	tsteq	r0, r8, asr r4
    1828:	00022329 	andeq	r2, r2, r9, lsr #6
    182c:	0e010400 	cfcpyseq	mvf0, mvf1
    1830:	58540700 	ldmdapl	r4, {r8, r9, sl}^
    1834:	2a010044 	bcs	4194c <__bss_end__+0x3698c>
    1838:	00000223 	andeq	r0, r0, r3, lsr #4
    183c:	000d0104 	andeq	r0, sp, r4, lsl #2
    1840:	52585207 	subspl	r5, r8, #1879048192	; 0x70000000
    1844:	232b0100 	teqcs	fp, #0, 2
    1848:	04000002 	streq	r0, [r0], #-2
    184c:	07000c01 	streq	r0, [r0, -r1, lsl #24]
    1850:	00465852 	subeq	r5, r6, r2, asr r8
    1854:	02232c01 	eoreq	r2, r3, #256	; 0x100
    1858:	01040000 	mrseq	r0, (UNDEF: 4)
    185c:	0308000b 	movweq	r0, #32779	; 0x800b
    1860:	0100000c 	tsteq	r0, ip
    1864:	0002232d 	andeq	r2, r2, sp, lsr #6
    1868:	0a010400 	beq	42870 <__bss_end__+0x378b0>
    186c:	0c0a0800 	stceq	8, cr0, [sl], {-0}
    1870:	2e010000 	cdpcs	0, 0, cr0, cr1, cr0, {0}
    1874:	00000223 	andeq	r0, r0, r3, lsr #4
    1878:	00090104 	andeq	r0, r9, r4, lsl #2
    187c:	000c4308 	andeq	r4, ip, r8, lsl #6
    1880:	232f0100 	teqcs	pc, #0, 2
    1884:	04000002 	streq	r0, [r0], #-2
    1888:	08000801 	stmdaeq	r0, {r0, fp}
    188c:	00000b92 	muleq	r0, r2, fp
    1890:	02233001 	eoreq	r3, r3, #1
    1894:	01040000 	mrseq	r0, (UNDEF: 4)
    1898:	89080007 	stmdbhi	r8, {r0, r1, r2}
    189c:	0100000b 	tsteq	r0, fp
    18a0:	00022331 	andeq	r2, r2, r1, lsr r3
    18a4:	06010400 	streq	r0, [r1], -r0, lsl #8
    18a8:	0cb90800 	ldceq	8, cr0, [r9]
    18ac:	32010000 	andcc	r0, r1, #0
    18b0:	00000223 	andeq	r0, r0, r3, lsr #4
    18b4:	00000604 	andeq	r0, r0, r4, lsl #12
    18b8:	07040900 	streq	r0, [r4, -r0, lsl #18]
    18bc:	000000a1 	andeq	r0, r0, r1, lsr #1
    18c0:	000c6b0a 	andeq	r6, ip, sl, lsl #22
    18c4:	35330100 	ldrcc	r0, [r3, #-256]!	; 0x100
    18c8:	0b000002 	bleq	18d8 <_start-0x6728>
    18cc:	000000a1 	andeq	r0, r0, r1, lsr #1
    18d0:	000bba06 	andeq	fp, fp, r6, lsl #20
    18d4:	36010400 	strcc	r0, [r1], -r0, lsl #8
    18d8:	00000265 	andeq	r0, r0, r5, ror #4
    18dc:	000ce608 	andeq	lr, ip, r8, lsl #12
    18e0:	23370100 	teqcs	r7, #0, 2
    18e4:	04000002 	streq	r0, [r0], #-2
    18e8:	08001010 	stmdaeq	r0, {r4, ip}
    18ec:	00000cb9 			; <UNDEFINED> instruction: 0x00000cb9
    18f0:	02233801 	eoreq	r3, r3, #65536	; 0x10000
    18f4:	10040000 	andne	r0, r4, r0
    18f8:	0a000000 	beq	1900 <_start-0x6700>
    18fc:	00000bba 			; <UNDEFINED> instruction: 0x00000bba
    1900:	02703901 	rsbseq	r3, r0, #16384	; 0x4000
    1904:	3a0b0000 	bcc	2c190c <__bss_end__+0x2b694c>
    1908:	06000002 	streq	r0, [r0], -r2
    190c:	00000cd6 	ldrdeq	r0, [r0], -r6
    1910:	a03c0104 	eorsge	r0, ip, r4, lsl #2
    1914:	07000002 	streq	r0, [r0, -r2]
    1918:	004e454c 	subeq	r4, lr, ip, asr #10
    191c:	02233d01 	eoreq	r3, r3, #1, 26	; 0x40
    1920:	10040000 	andne	r0, r4, r0
    1924:	b9080010 	stmdblt	r8, {r4}
    1928:	0100000c 	tsteq	r0, ip
    192c:	0002233e 	andeq	r2, r2, lr, lsr r3
    1930:	00100400 	andseq	r0, r0, r0, lsl #8
    1934:	d60a0000 	strle	r0, [sl], -r0
    1938:	0100000c 	tsteq	r0, ip
    193c:	0002ab3f 	andeq	sl, r2, pc, lsr fp
    1940:	02750b00 	rsbseq	r0, r5, #0, 22
    1944:	79060000 	stmdbvc	r6, {}	; <UNPREDICTABLE>
    1948:	0400000c 	streq	r0, [r0], #-12
    194c:	02db4301 	sbcseq	r4, fp, #67108864	; 0x4000000
    1950:	54070000 	strpl	r0, [r7], #-0
    1954:	0100484f 	tsteq	r0, pc, asr #16
    1958:	00022344 	andeq	r2, r2, r4, asr #6
    195c:	1c040400 	cfstrsne	mvf0, [r4], {-0}
    1960:	0cb90800 	ldceq	8, cr0, [r9]
    1964:	45010000 	strmi	r0, [r1, #-0]
    1968:	00000223 	andeq	r0, r0, r3, lsr #4
    196c:	00001c04 	andeq	r1, r0, r4, lsl #24
    1970:	0c790a00 	ldcleq	10, cr0, [r9], #-0
    1974:	46010000 	strmi	r0, [r1], -r0
    1978:	000002e6 	andeq	r0, r0, r6, ror #5
    197c:	0002b00b 	andeq	fp, r2, fp
    1980:	0cc80600 	stcleq	6, cr0, [r8], {0}
    1984:	01040000 	mrseq	r0, (UNDEF: 4)
    1988:	00033449 	andeq	r3, r3, r9, asr #8
    198c:	0bf70800 	bleq	ffdc3994 <__bss_end__+0xffdb89d4>
    1990:	4a010000 	bmi	41998 <__bss_end__+0x369d8>
    1994:	00000223 	andeq	r0, r0, r3, lsr #4
    1998:	00180804 	andseq	r0, r8, r4, lsl #16
    199c:	000cab08 	andeq	sl, ip, r8, lsl #22
    19a0:	234b0100 	movtcs	r0, #45312	; 0xb100
    19a4:	04000002 	streq	r0, [r0], #-2
    19a8:	08001008 	stmdaeq	r0, {r3, ip}
    19ac:	00000c5a 	andeq	r0, r0, sl, asr ip
    19b0:	02234c01 	eoreq	r4, r3, #256	; 0x100
    19b4:	08040000 	stmdaeq	r4, {}	; <UNPREDICTABLE>
    19b8:	b2080008 	andlt	r0, r8, #8
    19bc:	0100000c 	tsteq	r0, ip
    19c0:	0002234d 	andeq	r2, r2, sp, asr #6
    19c4:	00080400 	andeq	r0, r8, r0, lsl #8
    19c8:	c80a0000 	stmdagt	sl, {}	; <UNPREDICTABLE>
    19cc:	0100000c 	tsteq	r0, ip
    19d0:	00033f4e 	andeq	r3, r3, lr, asr #30
    19d4:	02eb0b00 	rsceq	r0, fp, #0, 22
    19d8:	11060000 	mrsne	r0, (UNDEF: 6)
    19dc:	1800000c 	stmdane	r0, {r2, r3}
    19e0:	03975001 	orrseq	r5, r7, #1
    19e4:	630c0000 	movwvs	r0, #49152	; 0xc000
    19e8:	51010073 	tstpl	r1, r3, ror r0
    19ec:	0000022a 	andeq	r0, r0, sl, lsr #4
    19f0:	0c4f0d00 	mcrreq	13, 0, r0, pc, cr0
    19f4:	52010000 	andpl	r0, r1, #0
    19f8:	00000223 	andeq	r0, r0, r3, lsr #4
    19fc:	6c630c04 	stclvs	12, cr0, [r3], #-16
    1a00:	5301006b 	movwpl	r0, #4203	; 0x106b
    1a04:	00000265 	andeq	r0, r0, r5, ror #4
    1a08:	0ce10d08 	stcleq	13, cr0, [r1], #32
    1a0c:	54010000 	strpl	r0, [r1], #-0
    1a10:	000002a0 	andeq	r0, r0, r0, lsr #5
    1a14:	0c840d0c 	stceq	13, cr0, [r4], {12}
    1a18:	55010000 	strpl	r0, [r1, #-0]
    1a1c:	000002db 	ldrdeq	r0, [r0], -fp
    1a20:	63640c10 	cmnvs	r4, #16, 24	; 0x1000
    1a24:	34560100 	ldrbcc	r0, [r6], #-256	; 0x100
    1a28:	14000003 	strne	r0, [r0], #-3
    1a2c:	0c110a00 	ldceq	10, cr0, [r1], {-0}
    1a30:	57010000 	strpl	r0, [r1, -r0]
    1a34:	000003a2 	andeq	r0, r0, r2, lsr #7
    1a38:	0003440b 	andeq	r4, r3, fp, lsl #8
    1a3c:	0c980e00 	ldceq	14, cr0, [r8], {0}
    1a40:	5c010000 	stcpl	0, cr0, [r1], {-0}
    1a44:	0000a59c 	muleq	r0, ip, r5
    1a48:	00000050 	andeq	r0, r0, r0, asr r0
    1a4c:	3a0f9c01 	bcc	3e8a58 <__bss_end__+0x3dda98>
    1a50:	0100000c 	tsteq	r0, ip
    1a54:	0003ee64 	andeq	lr, r3, r4, ror #28
    1a58:	00a5ec00 	adceq	lr, r5, r0, lsl #24
    1a5c:	00031400 	andeq	r1, r3, r0, lsl #8
    1a60:	ee9c0100 	fmle	f0, f4, f0
    1a64:	10000003 	andne	r0, r0, r3
    1a68:	00000baf 	andeq	r0, r0, pc, lsr #23
    1a6c:	03f56401 	mvnseq	r6, #16777216	; 0x1000000
    1a70:	91020000 	mrsls	r0, (UNDEF: 2)
    1a74:	0bce1074 	bleq	ff385c4c <__bss_end__+0xff37ac8c>
    1a78:	64010000 	strvs	r0, [r1], #-0
    1a7c:	000003f5 	strdeq	r0, [r0], -r5
    1a80:	00709102 	rsbseq	r9, r0, r2, lsl #2
    1a84:	69050411 	stmdbvs	r5, {r0, r4, sl}
    1a88:	0b00746e 	bleq	1ec48 <__bss_end__+0x13c88>
    1a8c:	00000223 	andeq	r0, r0, r3, lsr #4
    1a90:	000b6912 	andeq	r6, fp, r2, lsl r9
    1a94:	ee960100 	fmls	f0, f6, f0
    1a98:	00000003 	andeq	r0, r0, r3
    1a9c:	bc0000a9 	stclt	0, cr0, [r0], {169}	; 0xa9
    1aa0:	01000000 	mrseq	r0, (UNDEF: 0)
    1aa4:	00042e9c 	muleq	r4, ip, lr
    1aa8:	00631300 	rsbeq	r1, r3, r0, lsl #6
    1aac:	042e9601 	strteq	r9, [lr], #-1537	; 0x601
    1ab0:	91020000 	mrsls	r0, (UNDEF: 2)
    1ab4:	0b60146f 	bleq	1806c78 <__bss_end__+0x17fbcb8>
    1ab8:	97010000 	strls	r0, [r1, -r0]
    1abc:	00000223 	andeq	r0, r0, r3, lsr #4
    1ac0:	00749102 	rsbseq	r9, r4, r2, lsl #2
    1ac4:	1c080109 	stfnes	f0, [r8], {9}
    1ac8:	0f00000c 	svceq	0x0000000c
    1acc:	00000c89 	andeq	r0, r0, r9, lsl #25
    1ad0:	03eea001 	mvneq	sl, #1
    1ad4:	a9bc0000 	ldmibge	ip!, {}	; <UNPREDICTABLE>
    1ad8:	01340000 	teqeq	r4, r0
    1adc:	9c010000 	stcls	0, cr0, [r1], {-0}
    1ae0:	00000492 	muleq	r0, r2, r4
    1ae4:	74756f13 	ldrbtvc	r6, [r5], #-3859	; 0xf13
    1ae8:	92a00100 	adcls	r0, r0, #0, 2
    1aec:	02000004 	andeq	r0, r0, #4
    1af0:	69136491 	ldmdbvs	r3, {r0, r4, r7, sl, sp, lr}
    1af4:	a001006e 	andge	r0, r1, lr, rrx
    1af8:	00000492 	muleq	r0, r2, r4
    1afc:	13609102 	cmnne	r0, #-2147483648	; 0x80000000
    1b00:	006e656c 	rsbeq	r6, lr, ip, ror #10
    1b04:	0223a001 	eoreq	sl, r3, #1
    1b08:	91020000 	mrsls	r0, (UNDEF: 2)
    1b0c:	5343135c 	movtpl	r1, #13148	; 0x335c
    1b10:	23a00100 	movcs	r0, #0, 2
    1b14:	02000002 	andeq	r0, r0, #2
    1b18:	69155891 	ldmdbvs	r5, {r0, r4, r7, fp, ip, lr}
    1b1c:	a6010069 	strge	r0, [r1], -r9, rrx
    1b20:	00000223 	andeq	r0, r0, r3, lsr #4
    1b24:	006c9102 	rsbeq	r9, ip, r2, lsl #2
    1b28:	042e0416 	strteq	r0, [lr], #-1046	; 0x416
    1b2c:	7c140000 	ldcvc	0, cr0, [r4], {-0}
    1b30:	0100000b 	tsteq	r0, fp
    1b34:	0004a95a 	andeq	sl, r4, sl, asr r9
    1b38:	b0030500 	andlt	r0, r3, r0, lsl #10
    1b3c:	160000af 	strne	r0, [r0], -pc, lsr #1
    1b40:	00039704 	andeq	r9, r3, r4, lsl #14
    1b44:	03110000 	tsteq	r1, #0
    1b48:	00040000 	andeq	r0, r4, r0
    1b4c:	00000840 	andeq	r0, r0, r0, asr #16
    1b50:	00780104 	rsbseq	r0, r8, r4, lsl #2
    1b54:	09010000 	stmdbeq	r1, {}	; <UNPREDICTABLE>
    1b58:	3700000d 	strcc	r0, [r0, -sp]
    1b5c:	f0000000 			; <UNDEFINED> instruction: 0xf0000000
    1b60:	ac0000aa 	stcge	0, cr0, [r0], {170}	; 0xaa
    1b64:	e8000004 	stmda	r0, {r2}
    1b68:	02000006 	andeq	r0, r0, #6
    1b6c:	84060201 	strhi	r0, [r6], #-513	; 0x201
    1b70:	03000001 	movweq	r0, #1
    1b74:	0000058e 	andeq	r0, r0, lr, lsl #11
    1b78:	05d40300 	ldrbeq	r0, [r4, #768]	; 0x300
    1b7c:	03000000 	movweq	r0, #0
    1b80:	000005de 	ldrdeq	r0, [r0], -lr
    1b84:	05e80301 	strbeq	r0, [r8, #769]!	; 0x301
    1b88:	03020000 	movweq	r0, #8192	; 0x2000
    1b8c:	000005f2 	strdeq	r0, [r0], -r2
    1b90:	05fc0303 	ldrbeq	r0, [ip, #771]!	; 0x303
    1b94:	03040000 	movweq	r0, #16384	; 0x4000
    1b98:	00000606 	andeq	r0, r0, r6, lsl #12
    1b9c:	06100305 	ldreq	r0, [r0], -r5, lsl #6
    1ba0:	03060000 	movweq	r0, #24576	; 0x6000
    1ba4:	0000061a 	andeq	r0, r0, sl, lsl r6
    1ba8:	06240307 	strteq	r0, [r4], -r7, lsl #6
    1bac:	03080000 	movweq	r0, #32768	; 0x8000
    1bb0:	0000062e 	andeq	r0, r0, lr, lsr #12
    1bb4:	048d0309 	streq	r0, [sp], #777	; 0x309
    1bb8:	030a0000 	movweq	r0, #40960	; 0xa000
    1bbc:	00000498 	muleq	r0, r8, r4
    1bc0:	04a3030b 	strteq	r0, [r3], #779	; 0x30b
    1bc4:	030c0000 	movweq	r0, #49152	; 0xc000
    1bc8:	000004ae 	andeq	r0, r0, lr, lsr #9
    1bcc:	04b9030d 	ldrteq	r0, [r9], #781	; 0x30d
    1bd0:	030e0000 	movweq	r0, #57344	; 0xe000
    1bd4:	000004c4 	andeq	r0, r0, r4, asr #9
    1bd8:	04cf030f 	strbeq	r0, [pc], #783	; 1be0 <_start-0x6420>
    1bdc:	03100000 	tsteq	r0, #0
    1be0:	000004da 	ldrdeq	r0, [r0], -sl
    1be4:	04e50311 	strbteq	r0, [r5], #785	; 0x311
    1be8:	03120000 	tsteq	r2, #0
    1bec:	000004f0 	strdeq	r0, [r0], -r0	; <UNPREDICTABLE>
    1bf0:	06550313 			; <UNDEFINED> instruction: 0x06550313
    1bf4:	03140000 	tsteq	r4, #0
    1bf8:	00000660 	andeq	r0, r0, r0, ror #12
    1bfc:	066b0315 			; <UNDEFINED> instruction: 0x066b0315
    1c00:	03160000 	tsteq	r6, #0
    1c04:	00000676 	andeq	r0, r0, r6, ror r6
    1c08:	06810317 	pkhbteq	r0, r1, r7, lsl #6
    1c0c:	03180000 	tsteq	r8, #0
    1c10:	00000534 	andeq	r0, r0, r4, lsr r5
    1c14:	06930319 			; <UNDEFINED> instruction: 0x06930319
    1c18:	031a0000 	tsteq	sl, #0
    1c1c:	0000069e 	muleq	r0, lr, r6
    1c20:	06a9031b 	ssateq	r0, #10, fp, lsl #6
    1c24:	031c0000 	tsteq	ip, #0
    1c28:	000006b4 			; <UNDEFINED> instruction: 0x000006b4
    1c2c:	0197031d 	orrseq	r0, r7, sp, lsl r3
    1c30:	031e0000 	tsteq	lr, #0
    1c34:	000001a2 	andeq	r0, r0, r2, lsr #3
    1c38:	01ad031f 			; <UNDEFINED> instruction: 0x01ad031f
    1c3c:	03200000 	teqeq	r0, #0
    1c40:	000001b8 			; <UNDEFINED> instruction: 0x000001b8
    1c44:	01c30321 	biceq	r0, r3, r1, lsr #6
    1c48:	03220000 	teqeq	r2, #0
    1c4c:	000001ce 	andeq	r0, r0, lr, asr #3
    1c50:	01d90323 	bicseq	r0, r9, r3, lsr #6
    1c54:	03240000 	teqeq	r4, #0
    1c58:	000001e4 	andeq	r0, r0, r4, ror #3
    1c5c:	01ef0325 	mvneq	r0, r5, lsr #6
    1c60:	03260000 	teqeq	r6, #0
    1c64:	000001fa 	strdeq	r0, [r0], -sl
    1c68:	03780327 	cmneq	r8, #-1677721600	; 0x9c000000
    1c6c:	03280000 	teqeq	r8, #0
    1c70:	00000383 	andeq	r0, r0, r3, lsl #7
    1c74:	038e0329 	orreq	r0, lr, #-1543503872	; 0xa4000000
    1c78:	032a0000 	teqeq	sl, #0
    1c7c:	00000399 	muleq	r0, r9, r3
    1c80:	03a4032b 			; <UNDEFINED> instruction: 0x03a4032b
    1c84:	032c0000 	teqeq	ip, #0
    1c88:	000003af 	andeq	r0, r0, pc, lsr #7
    1c8c:	03ba032d 			; <UNDEFINED> instruction: 0x03ba032d
    1c90:	032e0000 	teqeq	lr, #0
    1c94:	000003c5 	andeq	r0, r0, r5, asr #7
    1c98:	03d0032f 	bicseq	r0, r0, #-1140850688	; 0xbc000000
    1c9c:	03300000 	teqeq	r0, #0
    1ca0:	000003db 	ldrdeq	r0, [r0], -fp
    1ca4:	05570331 	ldrbeq	r0, [r7, #-817]	; 0x331
    1ca8:	03320000 	teqeq	r2, #0
    1cac:	00000562 	andeq	r0, r0, r2, ror #10
    1cb0:	056d0333 	strbeq	r0, [sp, #-819]!	; 0x333
    1cb4:	03340000 	teqeq	r4, #0
    1cb8:	00000578 	andeq	r0, r0, r8, ror r5
    1cbc:	05830335 	streq	r0, [r3, #821]	; 0x335
    1cc0:	03360000 	teqeq	r6, #0
    1cc4:	00000281 	andeq	r0, r0, r1, lsl #5
    1cc8:	01020036 	tsteq	r2, r6, lsr r0
    1ccc:	01c34202 	biceq	r4, r3, r2, lsl #4
    1cd0:	09030000 	stmdbeq	r3, {}	; <UNPREDICTABLE>
    1cd4:	00000004 	andeq	r0, r0, r4
    1cd8:	00015303 	andeq	r5, r1, r3, lsl #6
    1cdc:	11030100 	mrsne	r0, (UNDEF: 19)
    1ce0:	04000007 	streq	r0, [r0], #-7
    1ce4:	0000e103 	andeq	lr, r0, r3, lsl #2
    1ce8:	9d030500 	cfstr32ls	mvfx0, [r3, #-0]
    1cec:	06000005 	streq	r0, [r0], -r5
    1cf0:	0003e603 	andeq	lr, r3, r3, lsl #12
    1cf4:	05030700 	streq	r0, [r3, #-1792]	; 0x700
    1cf8:	03000002 	movweq	r0, #2
    1cfc:	00021403 	andeq	r1, r2, r3, lsl #8
    1d00:	2c030200 	sfmcs	f0, 4, [r3], {-0}
    1d04:	08000004 	stmdaeq	r0, {r2}
    1d08:	014d0400 	cmpeq	sp, r0, lsl #8
    1d0c:	03010000 	movweq	r0, #4096	; 0x1000
    1d10:	0000aaf0 	strdeq	sl, [r0], -r0
    1d14:	00000064 	andeq	r0, r0, r4, rrx
    1d18:	02109c01 	andseq	r9, r0, #256	; 0x100
    1d1c:	72050000 	andvc	r0, r5, #0
    1d20:	01006765 	tsteq	r0, r5, ror #14
    1d24:	00021003 	andeq	r1, r2, r3
    1d28:	6f910200 	svcvs	0x00910200
    1d2c:	00089b06 	andeq	r9, r8, r6, lsl #22
    1d30:	10030100 	andne	r0, r3, r0, lsl #2
    1d34:	02000002 	andeq	r0, r0, #2
    1d38:	6f076e91 	svcvs	0x00076e91
    1d3c:	01007475 	tsteq	r0, r5, ror r4
    1d40:	00021706 	andeq	r1, r2, r6, lsl #14
    1d44:	74910200 	ldrvc	r0, [r1], #512	; 0x200
    1d48:	006e6907 	rsbeq	r6, lr, r7, lsl #18
    1d4c:	02170701 	andseq	r0, r7, #262144	; 0x40000
    1d50:	91020000 	mrsls	r0, (UNDEF: 2)
    1d54:	01080070 	tsteq	r8, r0, ror r0
    1d58:	000c2508 	andeq	r2, ip, r8, lsl #10
    1d5c:	022e0900 	eoreq	r0, lr, #0, 18
    1d60:	02270000 	eoreq	r0, r7, #0
    1d64:	270a0000 	strcs	r0, [sl, -r0]
    1d68:	01000002 	tsteq	r0, r2
    1d6c:	07040800 	streq	r0, [r4, -r0, lsl #16]
    1d70:	000008e5 	andeq	r0, r0, r5, ror #17
    1d74:	1c080108 	stfnes	f0, [r8], {8}
    1d78:	0b00000c 	bleq	1db0 <_start-0x6250>
    1d7c:	0000027c 	andeq	r0, r0, ip, ror r2
    1d80:	022e0c01 	eoreq	r0, lr, #256	; 0x100
    1d84:	ab540000 	blge	1501d8c <__bss_end__+0x14f6dcc>
    1d88:	00600000 	rsbeq	r0, r0, r0
    1d8c:	9c010000 	stcls	0, cr0, [r1], {-0}
    1d90:	00000278 	andeq	r0, r0, r8, ror r2
    1d94:	67657205 	strbvs	r7, [r5, -r5, lsl #4]!
    1d98:	100c0100 	andne	r0, ip, r0, lsl #2
    1d9c:	02000002 	andeq	r0, r0, #2
    1da0:	6f076f91 	svcvs	0x00076f91
    1da4:	01007475 	tsteq	r0, r5, ror r4
    1da8:	0002170e 	andeq	r1, r2, lr, lsl #14
    1dac:	74910200 	ldrvc	r0, [r1], #512	; 0x200
    1db0:	006e6907 	rsbeq	r6, lr, r7, lsl #18
    1db4:	02170f01 	andseq	r0, r7, #1, 30
    1db8:	91020000 	mrsls	r0, (UNDEF: 2)
    1dbc:	eb0c0070 	bl	301f84 <__bss_end__+0x2f6fc4>
    1dc0:	0100000c 	tsteq	r0, ip
    1dc4:	00abb414 	adceq	fp, fp, r4, lsl r4
    1dc8:	0001c400 	andeq	ip, r1, r0, lsl #8
    1dcc:	049c0100 	ldreq	r0, [ip], #256	; 0x100
    1dd0:	00000d26 	andeq	r0, r0, r6, lsr #26
    1dd4:	ad784f01 	ldclge	15, cr4, [r8, #-4]!
    1dd8:	00d00000 	sbcseq	r0, r0, r0
    1ddc:	9c010000 	stcls	0, cr0, [r1], {-0}
    1de0:	000002ba 			; <UNDEFINED> instruction: 0x000002ba
    1de4:	00686307 	rsbeq	r6, r8, r7, lsl #6
    1de8:	02105401 	andseq	r5, r0, #16777216	; 0x1000000
    1dec:	91020000 	mrsls	r0, (UNDEF: 2)
    1df0:	0d130d77 	ldceq	13, cr0, [r3, #-476]	; 0xfffffe24
    1df4:	5d010000 	stcpl	0, cr0, [r1, #-0]
    1df8:	000002ba 			; <UNDEFINED> instruction: 0x000002ba
    1dfc:	00709102 	rsbseq	r9, r0, r2, lsl #2
    1e00:	a1070408 	tstge	r7, r8, lsl #8
    1e04:	0c000000 	stceq	0, cr0, [r0], {-0}
    1e08:	00000d1e 	andeq	r0, r0, lr, lsl sp
    1e0c:	ae487f01 	cdpge	15, 4, cr7, cr8, cr1, {0}
    1e10:	008c0000 	addeq	r0, ip, r0
    1e14:	9c010000 	stcls	0, cr0, [r1], {-0}
    1e18:	000cf604 	andeq	pc, ip, r4, lsl #12
    1e1c:	d4990100 	ldrle	r0, [r9], #256	; 0x100
    1e20:	500000ae 	andpl	r0, r0, lr, lsr #1
    1e24:	01000000 	mrseq	r0, (UNDEF: 0)
    1e28:	0002f59c 	muleq	r2, ip, r5
    1e2c:	68630700 	stmdavs	r3!, {r8, r9, sl}^
    1e30:	2e9d0100 	fmlcse	f0, f5, f0
    1e34:	02000002 	andeq	r0, r0, #2
    1e38:	0e007791 	mcreq	7, 0, r7, cr0, cr1, {4}
    1e3c:	00000d01 	andeq	r0, r0, r1, lsl #26
    1e40:	af24a501 	svcge	0x0024a501
    1e44:	00780000 	rsbseq	r0, r8, r0
    1e48:	9c010000 	stcls	0, cr0, [r1], {-0}
    1e4c:	00686307 	rsbeq	r6, r8, r7, lsl #6
    1e50:	022eb801 	eoreq	fp, lr, #65536	; 0x10000
    1e54:	91020000 	mrsls	r0, (UNDEF: 2)
    1e58:	Address 0x0000000000001e58 is out of bounds.


Disassembly of section .debug_abbrev:

00000000 <.debug_abbrev>:
   0:	25011101 	strcs	r1, [r1, #-257]	; 0x101
   4:	030b130e 	movweq	r1, #45838	; 0xb30e
   8:	110e1b0e 	tstne	lr, lr, lsl #22
   c:	10061201 	andne	r1, r6, r1, lsl #4
  10:	02000017 	andeq	r0, r0, #23
  14:	193f012e 	ldmdbne	pc!, {r1, r2, r3, r5, r8}	; <UNPREDICTABLE>
  18:	0b3a0e03 	bleq	e8382c <__bss_end__+0xe7886c>
  1c:	01110b3b 	tsteq	r1, fp, lsr fp
  20:	18400612 	stmdane	r0, {r1, r4, r9, sl}^
  24:	01194296 			; <UNDEFINED> instruction: 0x01194296
  28:	03000013 	movweq	r0, #19
  2c:	08030034 	stmdaeq	r3, {r2, r4, r5}
  30:	0b3b0b3a 	bleq	ec2d20 <__bss_end__+0xeb7d60>
  34:	18021349 	stmdane	r2, {r0, r3, r6, r8, r9, ip}
  38:	34040000 	strcc	r0, [r4], #-0
  3c:	3a0e0300 	bcc	380c44 <__bss_end__+0x375c84>
  40:	490b3b0b 	stmdbmi	fp, {r0, r1, r3, r8, r9, fp, ip, sp}
  44:	00180213 	andseq	r0, r8, r3, lsl r2
  48:	000f0500 	andeq	r0, pc, r0, lsl #10
  4c:	13490b0b 	movtne	r0, #39691	; 0x9b0b
  50:	24060000 	strcs	r0, [r6], #-0
  54:	3e0b0b00 	vmlacc.f64	d0, d11, d0
  58:	0008030b 	andeq	r0, r8, fp, lsl #6
  5c:	00340700 	eorseq	r0, r4, r0, lsl #14
  60:	0b3a0e03 	bleq	e83874 <__bss_end__+0xe788b4>
  64:	13490b3b 	movtne	r0, #39739	; 0x9b3b
  68:	193c193f 	ldmdbne	ip!, {r0, r1, r2, r3, r4, r5, r8, fp, ip}
  6c:	01000000 	mrseq	r0, (UNDEF: 0)
  70:	0e250111 	mcreq	1, 1, r0, cr5, cr1, {0}
  74:	0e030b13 	vmoveq.32	d3[0], r0
  78:	01110e1b 	tsteq	r1, fp, lsl lr
  7c:	17100612 			; <UNDEFINED> instruction: 0x17100612
  80:	2e020000 	cdpcs	0, 0, cr0, cr2, cr0, {0}
  84:	03193f01 	tsteq	r9, #1, 30
  88:	3b0b3a0e 	blcc	2ce8c8 <__bss_end__+0x2c3908>
  8c:	1201110b 	andne	r1, r1, #-1073741822	; 0xc0000002
  90:	96184006 	ldrls	r4, [r8], -r6
  94:	13011942 	movwne	r1, #6466	; 0x1942
  98:	34030000 	strcc	r0, [r3], #-0
  9c:	3a080300 	bcc	200ca4 <__bss_end__+0x1f5ce4>
  a0:	490b3b0b 	stmdbmi	fp, {r0, r1, r3, r8, r9, fp, ip, sp}
  a4:	00180213 	andseq	r0, r8, r3, lsl r2
  a8:	00240400 	eoreq	r0, r4, r0, lsl #8
  ac:	0b3e0b0b 	bleq	f82ce0 <__bss_end__+0xf77d20>
  b0:	00000e03 	andeq	r0, r0, r3, lsl #28
  b4:	3f002e05 	svccc	0x00002e05
  b8:	3a0e0319 	bcc	380d24 <__bss_end__+0x375d64>
  bc:	110b3b0b 	tstne	fp, fp, lsl #22
  c0:	40061201 	andmi	r1, r6, r1, lsl #4
  c4:	19429618 	stmdbne	r2, {r3, r4, r9, sl, ip, pc}^
  c8:	2e060000 	cdpcs	0, 0, cr0, cr6, cr0, {0}
  cc:	03193f00 	tsteq	r9, #0, 30
  d0:	3b0b3a0e 	blcc	2ce910 <__bss_end__+0x2c3950>
  d4:	1113490b 	tstne	r3, fp, lsl #18
  d8:	40061201 	andmi	r1, r6, r1, lsl #4
  dc:	19429718 	stmdbne	r2, {r3, r4, r8, r9, sl, ip, pc}^
  e0:	24070000 	strcs	r0, [r7], #-0
  e4:	3e0b0b00 	vmlacc.f64	d0, d11, d0
  e8:	0008030b 	andeq	r0, r8, fp, lsl #6
  ec:	002e0800 	eoreq	r0, lr, r0, lsl #16
  f0:	0e03193f 	mcreq	9, 0, r1, cr3, cr15, {1}
  f4:	0b3b0b3a 	bleq	ec2de4 <__bss_end__+0xeb7e24>
  f8:	01111349 	tsteq	r1, r9, asr #6
  fc:	18400612 	stmdane	r0, {r1, r4, r9, sl}^
 100:	00194296 	mulseq	r9, r6, r2
 104:	00340900 	eorseq	r0, r4, r0, lsl #18
 108:	0b3a0e03 	bleq	e8391c <__bss_end__+0xe7895c>
 10c:	13490b3b 	movtne	r0, #39739	; 0x9b3b
 110:	00001802 	andeq	r1, r0, r2, lsl #16
 114:	01110100 	tsteq	r1, r0, lsl #2
 118:	0b130e25 	bleq	4c39b4 <__bss_end__+0x4b89f4>
 11c:	0e1b0e03 	cdpeq	14, 1, cr0, cr11, cr3, {0}
 120:	06120111 			; <UNDEFINED> instruction: 0x06120111
 124:	00001710 	andeq	r1, r0, r0, lsl r7
 128:	0b010402 	bleq	41138 <__bss_end__+0x36178>
 12c:	3b0b3a0b 	blcc	2ce960 <__bss_end__+0x2c39a0>
 130:	0013010b 	andseq	r0, r3, fp, lsl #2
 134:	00280300 	eoreq	r0, r8, r0, lsl #6
 138:	0d1c0e03 	ldceq	14, cr0, [ip, #-12]
 13c:	2e040000 	cdpcs	0, 0, cr0, cr4, cr0, {0}
 140:	03193f01 	tsteq	r9, #1, 30
 144:	3b0b3a0e 	blcc	2ce984 <__bss_end__+0x2c39c4>
 148:	1119270b 	tstne	r9, fp, lsl #14
 14c:	40061201 	andmi	r1, r6, r1, lsl #4
 150:	19429718 	stmdbne	r2, {r3, r4, r8, r9, sl, ip, pc}^
 154:	00001301 	andeq	r1, r0, r1, lsl #6
 158:	03000505 	movweq	r0, #1285	; 0x505
 15c:	3b0b3a08 	blcc	2ce984 <__bss_end__+0x2c39c4>
 160:	0213490b 	andseq	r4, r3, #180224	; 0x2c000
 164:	06000018 			; <UNDEFINED> instruction: 0x06000018
 168:	0e030005 	cdpeq	0, 0, cr0, cr3, cr5, {0}
 16c:	0b3b0b3a 	bleq	ec2e5c <__bss_end__+0xeb7e9c>
 170:	18021349 	stmdane	r2, {r0, r3, r6, r8, r9, ip}
 174:	34070000 	strcc	r0, [r7], #-0
 178:	3a0e0300 	bcc	380d80 <__bss_end__+0x375dc0>
 17c:	490b3b0b 	stmdbmi	fp, {r0, r1, r3, r8, r9, fp, ip, sp}
 180:	00180213 	andseq	r0, r8, r3, lsl r2
 184:	00240800 	eoreq	r0, r4, r0, lsl #16
 188:	0b3e0b0b 	bleq	f82dbc <__bss_end__+0xf77dfc>
 18c:	00000803 	andeq	r0, r0, r3, lsl #16
 190:	0b000f09 	bleq	3dbc <_start-0x4244>
 194:	0013490b 	andseq	r4, r3, fp, lsl #18
 198:	00350a00 	eorseq	r0, r5, r0, lsl #20
 19c:	00001349 	andeq	r1, r0, r9, asr #6
 1a0:	3f012e0b 	svccc	0x00012e0b
 1a4:	3a0e0319 	bcc	380e10 <__bss_end__+0x375e50>
 1a8:	270b3b0b 	strcs	r3, [fp, -fp, lsl #22]
 1ac:	11134919 	tstne	r3, r9, lsl r9
 1b0:	40061201 	andmi	r1, r6, r1, lsl #4
 1b4:	19429718 	stmdbne	r2, {r3, r4, r8, r9, sl, ip, pc}^
 1b8:	00001301 	andeq	r1, r0, r1, lsl #6
 1bc:	0300340c 	movweq	r3, #1036	; 0x40c
 1c0:	3b0b3a08 	blcc	2ce9e8 <__bss_end__+0x2c3a28>
 1c4:	0213490b 	andseq	r4, r3, #180224	; 0x2c000
 1c8:	0d000018 	stceq	0, cr0, [r0, #-96]	; 0xffffffa0
 1cc:	0b0b0024 	bleq	2c0264 <__bss_end__+0x2b52a4>
 1d0:	0e030b3e 	vmoveq.16	d3[0], r0
 1d4:	2e0e0000 	cdpcs	0, 0, cr0, cr14, cr0, {0}
 1d8:	03193f01 	tsteq	r9, #1, 30
 1dc:	3b0b3a0e 	blcc	2cea1c <__bss_end__+0x2c3a5c>
 1e0:	1113490b 	tstne	r3, fp, lsl #18
 1e4:	40061201 	andmi	r1, r6, r1, lsl #4
 1e8:	19429718 	stmdbne	r2, {r3, r4, r8, r9, sl, ip, pc}^
 1ec:	00001301 	andeq	r1, r0, r1, lsl #6
 1f0:	3f012e0f 	svccc	0x00012e0f
 1f4:	3a0e0319 	bcc	380e60 <__bss_end__+0x375ea0>
 1f8:	270b3b0b 	strcs	r3, [fp, -fp, lsl #22]
 1fc:	11134919 	tstne	r3, r9, lsl r9
 200:	40061201 	andmi	r1, r6, r1, lsl #4
 204:	19429618 	stmdbne	r2, {r3, r4, r9, sl, ip, pc}^
 208:	00001301 	andeq	r1, r0, r1, lsl #6
 20c:	3f002e10 	svccc	0x00002e10
 210:	3a0e0319 	bcc	380e7c <__bss_end__+0x375ebc>
 214:	110b3b0b 	tstne	fp, fp, lsl #22
 218:	40061201 	andmi	r1, r6, r1, lsl #4
 21c:	19429618 	stmdbne	r2, {r3, r4, r9, sl, ip, pc}^
 220:	2e110000 	cdpcs	0, 1, cr0, cr1, cr0, {0}
 224:	03193f01 	tsteq	r9, #1, 30
 228:	3b0b3a0e 	blcc	2cea68 <__bss_end__+0x2c3aa8>
 22c:	49192705 	ldmdbmi	r9, {r0, r2, r8, r9, sl, sp}
 230:	12011113 	andne	r1, r1, #-1073741820	; 0xc0000004
 234:	96184006 	ldrls	r4, [r8], -r6
 238:	13011942 	movwne	r1, #6466	; 0x1942
 23c:	05120000 	ldreq	r0, [r2, #-0]
 240:	3a080300 	bcc	200e48 <__bss_end__+0x1f5e88>
 244:	49053b0b 	stmdbmi	r5, {r0, r1, r3, r8, r9, fp, ip, sp}
 248:	00180213 	andseq	r0, r8, r3, lsl r2
 24c:	00051300 	andeq	r1, r5, r0, lsl #6
 250:	0b3a0e03 	bleq	e83a64 <__bss_end__+0xe78aa4>
 254:	1349053b 	movtne	r0, #38203	; 0x953b
 258:	00001802 	andeq	r1, r0, r2, lsl #16
 25c:	03003414 	movweq	r3, #1044	; 0x414
 260:	3b0b3a08 	blcc	2cea88 <__bss_end__+0x2c3ac8>
 264:	02134905 	andseq	r4, r3, #81920	; 0x14000
 268:	15000018 	strne	r0, [r0, #-24]
 26c:	0e030034 	mcreq	0, 0, r0, cr3, cr4, {1}
 270:	053b0b3a 	ldreq	r0, [fp, #-2874]!	; 0xb3a
 274:	18021349 	stmdane	r2, {r0, r3, r6, r8, r9, ip}
 278:	2e160000 	cdpcs	0, 1, cr0, cr6, cr0, {0}
 27c:	03193f01 	tsteq	r9, #1, 30
 280:	3b0b3a0e 	blcc	2ceac0 <__bss_end__+0x2c3b00>
 284:	11192705 	tstne	r9, r5, lsl #14
 288:	40061201 	andmi	r1, r6, r1, lsl #4
 28c:	19429618 	stmdbne	r2, {r3, r4, r9, sl, ip, pc}^
 290:	00001301 	andeq	r1, r0, r1, lsl #6
 294:	3f012e17 	svccc	0x00012e17
 298:	3a0e0319 	bcc	380f04 <__bss_end__+0x375f44>
 29c:	27053b0b 	strcs	r3, [r5, -fp, lsl #22]
 2a0:	11134919 	tstne	r3, r9, lsl r9
 2a4:	40061201 	andmi	r1, r6, r1, lsl #4
 2a8:	19429718 	stmdbne	r2, {r3, r4, r8, r9, sl, ip, pc}^
 2ac:	00001301 	andeq	r1, r0, r1, lsl #6
 2b0:	3f012e18 	svccc	0x00012e18
 2b4:	3a0e0319 	bcc	380f20 <__bss_end__+0x375f60>
 2b8:	27053b0b 	strcs	r3, [r5, -fp, lsl #22]
 2bc:	12011119 	andne	r1, r1, #1073741830	; 0x40000006
 2c0:	96184006 	ldrls	r4, [r8], -r6
 2c4:	00001942 	andeq	r1, r0, r2, asr #18
 2c8:	01110100 	tsteq	r1, r0, lsl #2
 2cc:	0b130e25 	bleq	4c3b68 <__bss_end__+0x4b8ba8>
 2d0:	0e1b0e03 	cdpeq	14, 1, cr0, cr11, cr3, {0}
 2d4:	06120111 			; <UNDEFINED> instruction: 0x06120111
 2d8:	00001710 	andeq	r1, r0, r0, lsl r7
 2dc:	3f002e02 	svccc	0x00002e02
 2e0:	3a0e0319 	bcc	380f4c <__bss_end__+0x375f8c>
 2e4:	110b3b0b 	tstne	fp, fp, lsl #22
 2e8:	40061201 	andmi	r1, r6, r1, lsl #4
 2ec:	19429618 	stmdbne	r2, {r3, r4, r9, sl, ip, pc}^
 2f0:	2e030000 	cdpcs	0, 0, cr0, cr3, cr0, {0}
 2f4:	03193f00 	tsteq	r9, #0, 30
 2f8:	3b0b3a0e 	blcc	2ceb38 <__bss_end__+0x2c3b78>
 2fc:	1113490b 	tstne	r3, fp, lsl #18
 300:	40061201 	andmi	r1, r6, r1, lsl #4
 304:	19429618 	stmdbne	r2, {r3, r4, r9, sl, ip, pc}^
 308:	24040000 	strcs	r0, [r4], #-0
 30c:	3e0b0b00 	vmlacc.f64	d0, d11, d0
 310:	000e030b 	andeq	r0, lr, fp, lsl #6
 314:	012e0500 	teqeq	lr, r0, lsl #10
 318:	0e03193f 	mcreq	9, 0, r1, cr3, cr15, {1}
 31c:	0b3b0b3a 	bleq	ec300c <__bss_end__+0xeb804c>
 320:	01111927 	tsteq	r1, r7, lsr #18
 324:	18400612 	stmdane	r0, {r1, r4, r9, sl}^
 328:	01194296 			; <UNDEFINED> instruction: 0x01194296
 32c:	06000013 			; <UNDEFINED> instruction: 0x06000013
 330:	0e030005 	cdpeq	0, 0, cr0, cr3, cr5, {0}
 334:	0b3b0b3a 	bleq	ec3024 <__bss_end__+0xeb8064>
 338:	18021349 	stmdane	r2, {r0, r3, r6, r8, r9, ip}
 33c:	34070000 	strcc	r0, [r7], #-0
 340:	3a0e0300 	bcc	380f48 <__bss_end__+0x375f88>
 344:	490b3b0b 	stmdbmi	fp, {r0, r1, r3, r8, r9, fp, ip, sp}
 348:	00180213 	andseq	r0, r8, r3, lsl r2
 34c:	010b0800 	tsteq	fp, r0, lsl #16
 350:	06120111 			; <UNDEFINED> instruction: 0x06120111
 354:	01000000 	mrseq	r0, (UNDEF: 0)
 358:	0e250111 	mcreq	1, 1, r0, cr5, cr1, {0}
 35c:	0e030b13 	vmoveq.32	d3[0], r0
 360:	01110e1b 	tsteq	r1, fp, lsl lr
 364:	17100612 			; <UNDEFINED> instruction: 0x17100612
 368:	2e020000 	cdpcs	0, 0, cr0, cr2, cr0, {0}
 36c:	03193f01 	tsteq	r9, #1, 30
 370:	3b0b3a0e 	blcc	2cebb0 <__bss_end__+0x2c3bf0>
 374:	1201110b 	andne	r1, r1, #-1073741822	; 0xc0000002
 378:	97184006 	ldrls	r4, [r8, -r6]
 37c:	13011942 	movwne	r1, #6466	; 0x1942
 380:	34030000 	strcc	r0, [r3], #-0
 384:	3a080300 	bcc	200f8c <__bss_end__+0x1f5fcc>
 388:	490b3b0b 	stmdbmi	fp, {r0, r1, r3, r8, r9, fp, ip, sp}
 38c:	00180213 	andseq	r0, r8, r3, lsl r2
 390:	00240400 	eoreq	r0, r4, r0, lsl #8
 394:	0b3e0b0b 	bleq	f82fc8 <__bss_end__+0xf78008>
 398:	00000e03 	andeq	r0, r0, r3, lsl #28
 39c:	3f002e05 	svccc	0x00002e05
 3a0:	3a0e0319 	bcc	38100c <__bss_end__+0x37604c>
 3a4:	110b3b0b 	tstne	fp, fp, lsl #22
 3a8:	40061201 	andmi	r1, r6, r1, lsl #4
 3ac:	19429718 	stmdbne	r2, {r3, r4, r8, r9, sl, ip, pc}^
 3b0:	01000000 	mrseq	r0, (UNDEF: 0)
 3b4:	0e250111 	mcreq	1, 1, r0, cr5, cr1, {0}
 3b8:	0e030b13 	vmoveq.32	d3[0], r0
 3bc:	17100e1b 			; <UNDEFINED> instruction: 0x17100e1b
 3c0:	24020000 	strcs	r0, [r2], #-0
 3c4:	3e0b0b00 	vmlacc.f64	d0, d11, d0
 3c8:	000e030b 	andeq	r0, lr, fp, lsl #6
 3cc:	11010000 	mrsne	r0, (UNDEF: 1)
 3d0:	130e2501 	movwne	r2, #58625	; 0xe501
 3d4:	1b0e030b 	blne	381008 <__bss_end__+0x376048>
 3d8:	1201110e 	andne	r1, r1, #-2147483645	; 0x80000003
 3dc:	00171006 	andseq	r1, r7, r6
 3e0:	01130200 	tsteq	r3, r0, lsl #4
 3e4:	0b0b0e03 	bleq	2c3bf8 <__bss_end__+0x2b8c38>
 3e8:	0b3b0b3a 	bleq	ec30d8 <__bss_end__+0xeb8118>
 3ec:	00001301 	andeq	r1, r0, r1, lsl #6
 3f0:	03000d03 	movweq	r0, #3331	; 0xd03
 3f4:	3b0b3a0e 	blcc	2cec34 <__bss_end__+0x2c3c74>
 3f8:	3813490b 	ldmdacc	r3, {r0, r1, r3, r8, fp, lr}
 3fc:	0400000b 	streq	r0, [r0], #-11
 400:	0803000d 	stmdaeq	r3, {r0, r2, r3}
 404:	0b3b0b3a 	bleq	ec30f4 <__bss_end__+0xeb8134>
 408:	0b381349 	bleq	e05134 <__bss_end__+0xdfa174>
 40c:	24050000 	strcs	r0, [r5], #-0
 410:	3e0b0b00 	vmlacc.f64	d0, d11, d0
 414:	0008030b 	andeq	r0, r8, fp, lsl #6
 418:	012e0600 	teqeq	lr, r0, lsl #12
 41c:	0e03193f 	mcreq	9, 0, r1, cr3, cr15, {1}
 420:	0b3b0b3a 	bleq	ec3110 <__bss_end__+0xeb8150>
 424:	01111927 	tsteq	r1, r7, lsr #18
 428:	18400612 	stmdane	r0, {r1, r4, r9, sl}^
 42c:	01194296 			; <UNDEFINED> instruction: 0x01194296
 430:	07000013 	smladeq	r0, r3, r0, r0
 434:	08030034 	stmdaeq	r3, {r2, r4, r5}
 438:	0b3b0b3a 	bleq	ec3128 <__bss_end__+0xeb8168>
 43c:	18021349 	stmdane	r2, {r0, r3, r6, r8, r9, ip}
 440:	0f080000 	svceq	0x00080000
 444:	490b0b00 	stmdbmi	fp, {r8, r9, fp}
 448:	09000013 	stmdbeq	r0, {r0, r1, r4}
 44c:	193f002e 	ldmdbne	pc!, {r1, r2, r3, r5}	; <UNPREDICTABLE>
 450:	0b3a0e03 	bleq	e83c64 <__bss_end__+0xe78ca4>
 454:	19270b3b 	stmdbne	r7!, {r0, r1, r3, r4, r5, r8, r9, fp}
 458:	01111349 	tsteq	r1, r9, asr #6
 45c:	18400612 	stmdane	r0, {r1, r4, r9, sl}^
 460:	00194297 	mulseq	r9, r7, r2
 464:	00050a00 	andeq	r0, r5, r0, lsl #20
 468:	0b3a0803 	bleq	e8247c <__bss_end__+0xe774bc>
 46c:	13490b3b 	movtne	r0, #39739	; 0x9b3b
 470:	00001802 	andeq	r1, r0, r2, lsl #16
 474:	0b00240b 	bleq	94a8 <intobase+0x12c>
 478:	030b3e0b 	movweq	r3, #48651	; 0xbe0b
 47c:	0c00000e 	stceq	0, cr0, [r0], {14}
 480:	193f002e 	ldmdbne	pc!, {r1, r2, r3, r5}	; <UNPREDICTABLE>
 484:	0b3a0e03 	bleq	e83c98 <__bss_end__+0xe78cd8>
 488:	19270b3b 	stmdbne	r7!, {r0, r1, r3, r4, r5, r8, r9, fp}
 48c:	06120111 			; <UNDEFINED> instruction: 0x06120111
 490:	42971840 	addsmi	r1, r7, #64, 16	; 0x400000
 494:	0d000019 	stceq	0, cr0, [r0, #-100]	; 0xffffff9c
 498:	0e030034 	mcreq	0, 0, r0, cr3, cr4, {1}
 49c:	0b3b0b3a 	bleq	ec318c <__bss_end__+0xeb81cc>
 4a0:	193f1349 	ldmdbne	pc!, {r0, r3, r6, r8, r9, ip}	; <UNPREDICTABLE>
 4a4:	00001802 	andeq	r1, r0, r2, lsl #16
 4a8:	4900350e 	stmdbmi	r0, {r1, r2, r3, r8, sl, ip, sp}
 4ac:	00000013 	andeq	r0, r0, r3, lsl r0
 4b0:	25011101 	strcs	r1, [r1, #-257]	; 0x101
 4b4:	030b130e 	movweq	r1, #45838	; 0xb30e
 4b8:	110e1b0e 	tstne	lr, lr, lsl #22
 4bc:	10061201 	andne	r1, r6, r1, lsl #4
 4c0:	02000017 	andeq	r0, r0, #23
 4c4:	0e030016 	mcreq	0, 0, r0, cr3, cr6, {0}
 4c8:	0b3b0b3a 	bleq	ec31b8 <__bss_end__+0xeb81f8>
 4cc:	00001349 	andeq	r1, r0, r9, asr #6
 4d0:	03011303 	movweq	r1, #4867	; 0x1303
 4d4:	3a0b0b0e 	bcc	2c3114 <__bss_end__+0x2b8154>
 4d8:	010b3b0b 	tsteq	fp, fp, lsl #22
 4dc:	04000013 	streq	r0, [r0], #-19
 4e0:	0e03000d 	cdpeq	0, 0, cr0, cr3, cr13, {0}
 4e4:	0b381349 	bleq	e05210 <__bss_end__+0xdfa250>
 4e8:	00001934 	andeq	r1, r0, r4, lsr r9
 4ec:	0b000f05 	bleq	4108 <_start-0x3ef8>
 4f0:	0600000b 	streq	r0, [r0], -fp
 4f4:	0b0b0024 	bleq	2c058c <__bss_end__+0x2b55cc>
 4f8:	08030b3e 	stmdaeq	r3, {r1, r2, r3, r4, r5, r8, r9, fp}
 4fc:	04070000 	streq	r0, [r7], #-0
 500:	3a0b0b01 	bcc	2c310c <__bss_end__+0x2b814c>
 504:	010b3b0b 	tsteq	fp, fp, lsl #22
 508:	08000013 	stmdaeq	r0, {r0, r1, r4}
 50c:	0e030028 	cdpeq	0, 0, cr0, cr3, cr8, {1}
 510:	00000d1c 	andeq	r0, r0, ip, lsl sp
 514:	3f012e09 	svccc	0x00012e09
 518:	3a0e0319 	bcc	381184 <__bss_end__+0x3761c4>
 51c:	270b3b0b 	strcs	r3, [fp, -fp, lsl #22]
 520:	11134919 	tstne	r3, r9, lsl r9
 524:	40061201 	andmi	r1, r6, r1, lsl #4
 528:	19429718 	stmdbne	r2, {r3, r4, r8, r9, sl, ip, pc}^
 52c:	00001301 	andeq	r1, r0, r1, lsl #6
 530:	0300050a 	movweq	r0, #1290	; 0x50a
 534:	3b0b3a08 	blcc	2ced5c <__bss_end__+0x2c3d9c>
 538:	0213490b 	andseq	r4, r3, #180224	; 0x2c000
 53c:	0b000018 	bleq	5a4 <_start-0x7a5c>
 540:	0e030005 	cdpeq	0, 0, cr0, cr3, cr5, {0}
 544:	0b3b0b3a 	bleq	ec3234 <__bss_end__+0xeb8274>
 548:	18021349 	stmdane	r2, {r0, r3, r6, r8, r9, ip}
 54c:	340c0000 	strcc	r0, [ip], #-0
 550:	3a0e0300 	bcc	381158 <__bss_end__+0x376198>
 554:	490b3b0b 	stmdbmi	fp, {r0, r1, r3, r8, r9, fp, ip, sp}
 558:	00180213 	andseq	r0, r8, r3, lsl r2
 55c:	00340d00 	eorseq	r0, r4, r0, lsl #26
 560:	0b3a0803 	bleq	e82574 <__bss_end__+0xe775b4>
 564:	13490b3b 	movtne	r0, #39739	; 0x9b3b
 568:	00001802 	andeq	r1, r0, r2, lsl #16
 56c:	0b000f0e 	bleq	41ac <_start-0x3e54>
 570:	0013490b 	andseq	r4, r3, fp, lsl #18
 574:	00240f00 	eoreq	r0, r4, r0, lsl #30
 578:	0b3e0b0b 	bleq	f831ac <__bss_end__+0xf781ec>
 57c:	00000e03 	andeq	r0, r0, r3, lsl #28
 580:	49010110 	stmdbmi	r1, {r4, r8}
 584:	00130113 	andseq	r0, r3, r3, lsl r1
 588:	00211100 	eoreq	r1, r1, r0, lsl #2
 58c:	0b2f1349 	bleq	bc52b8 <__bss_end__+0xbba2f8>
 590:	2e120000 	cdpcs	0, 1, cr0, cr2, cr0, {0}
 594:	03193f01 	tsteq	r9, #1, 30
 598:	3b0b3a0e 	blcc	2cedd8 <__bss_end__+0x2c3e18>
 59c:	4919270b 	ldmdbmi	r9, {r0, r1, r3, r8, r9, sl, sp}
 5a0:	12011113 	andne	r1, r1, #-1073741820	; 0xc0000004
 5a4:	96184006 	ldrls	r4, [r8], -r6
 5a8:	13011942 	movwne	r1, #6466	; 0x1942
 5ac:	18130000 	ldmdane	r3, {}	; <UNPREDICTABLE>
 5b0:	14000000 	strne	r0, [r0], #-0
 5b4:	13490026 	movtne	r0, #36902	; 0x9026
 5b8:	0b150000 	bleq	5405c0 <__bss_end__+0x535600>
 5bc:	12011101 	andne	r1, r1, #1073741824	; 0x40000000
 5c0:	16000006 	strne	r0, [r0], -r6
 5c4:	0e030034 	mcreq	0, 0, r0, cr3, cr4, {1}
 5c8:	053b0b3a 	ldreq	r0, [fp, #-2874]!	; 0xb3a
 5cc:	18021349 	stmdane	r2, {r0, r3, r6, r8, r9, ip}
 5d0:	21170000 	tstcs	r7, r0
 5d4:	2f134900 	svccs	0x00134900
 5d8:	18000018 	stmdane	r0, {r3, r4}
 5dc:	193f012e 	ldmdbne	pc!, {r1, r2, r3, r5, r8}	; <UNPREDICTABLE>
 5e0:	0b3a0e03 	bleq	e83df4 <__bss_end__+0xe78e34>
 5e4:	1927053b 	stmdbne	r7!, {r0, r1, r3, r4, r5, r8, sl}
 5e8:	01111349 	tsteq	r1, r9, asr #6
 5ec:	18400612 	stmdane	r0, {r1, r4, r9, sl}^
 5f0:	01194296 			; <UNDEFINED> instruction: 0x01194296
 5f4:	19000013 	stmdbne	r0, {r0, r1, r4}
 5f8:	0e030005 	cdpeq	0, 0, cr0, cr3, cr5, {0}
 5fc:	053b0b3a 	ldreq	r0, [fp, #-2874]!	; 0xb3a
 600:	18021349 	stmdane	r2, {r0, r3, r6, r8, r9, ip}
 604:	341a0000 	ldrcc	r0, [sl], #-0
 608:	3a080300 	bcc	201210 <__bss_end__+0x1f6250>
 60c:	49053b0b 	stmdbmi	r5, {r0, r1, r3, r8, r9, fp, ip, sp}
 610:	00180213 	andseq	r0, r8, r3, lsl r2
 614:	11010000 	mrsne	r0, (UNDEF: 1)
 618:	130e2501 	movwne	r2, #58625	; 0xe501
 61c:	1b0e030b 	blne	381250 <__bss_end__+0x376290>
 620:	1201110e 	andne	r1, r1, #-2147483645	; 0x80000003
 624:	00171006 	andseq	r1, r7, r6
 628:	012e0200 	teqeq	lr, r0, lsl #4
 62c:	0e03193f 	mcreq	9, 0, r1, cr3, cr15, {1}
 630:	0b3b0b3a 	bleq	ec3320 <__bss_end__+0xeb8360>
 634:	13491927 	movtne	r1, #39207	; 0x9927
 638:	06120111 			; <UNDEFINED> instruction: 0x06120111
 63c:	42971840 	addsmi	r1, r7, #64, 16	; 0x400000
 640:	00130119 	andseq	r0, r3, r9, lsl r1
 644:	00050300 	andeq	r0, r5, r0, lsl #6
 648:	0b3a0e03 	bleq	e83e5c <__bss_end__+0xe78e9c>
 64c:	13490b3b 	movtne	r0, #39739	; 0x9b3b
 650:	00001802 	andeq	r1, r0, r2, lsl #16
 654:	03003404 	movweq	r3, #1028	; 0x404
 658:	3b0b3a0e 	blcc	2cee98 <__bss_end__+0x2c3ed8>
 65c:	0213490b 	andseq	r4, r3, #180224	; 0x2c000
 660:	05000018 	streq	r0, [r0, #-24]
 664:	0b0b0024 	bleq	2c06fc <__bss_end__+0x2b573c>
 668:	0e030b3e 	vmoveq.16	d3[0], r0
 66c:	24060000 	strcs	r0, [r6], #-0
 670:	3e0b0b00 	vmlacc.f64	d0, d11, d0
 674:	0008030b 	andeq	r0, r8, fp, lsl #6
 678:	000f0700 	andeq	r0, pc, r0, lsl #14
 67c:	13490b0b 	movtne	r0, #39691	; 0x9b0b
 680:	35080000 	strcc	r0, [r8, #-0]
 684:	00134900 	andseq	r4, r3, r0, lsl #18
 688:	11010000 	mrsne	r0, (UNDEF: 1)
 68c:	130e2501 	movwne	r2, #58625	; 0xe501
 690:	1b0e030b 	blne	3812c4 <__bss_end__+0x376304>
 694:	1201110e 	andne	r1, r1, #-2147483645	; 0x80000003
 698:	00171006 	andseq	r1, r7, r6
 69c:	012e0200 	teqeq	lr, r0, lsl #4
 6a0:	0e03193f 	mcreq	9, 0, r1, cr3, cr15, {1}
 6a4:	0b3b0b3a 	bleq	ec3394 <__bss_end__+0xeb83d4>
 6a8:	01111927 	tsteq	r1, r7, lsr #18
 6ac:	18400612 	stmdane	r0, {r1, r4, r9, sl}^
 6b0:	01194297 			; <UNDEFINED> instruction: 0x01194297
 6b4:	03000013 	movweq	r0, #19
 6b8:	08030005 	stmdaeq	r3, {r0, r2}
 6bc:	0b3b0b3a 	bleq	ec33ac <__bss_end__+0xeb83ec>
 6c0:	18021349 	stmdane	r2, {r0, r3, r6, r8, r9, ip}
 6c4:	24040000 	strcs	r0, [r4], #-0
 6c8:	3e0b0b00 	vmlacc.f64	d0, d11, d0
 6cc:	000e030b 	andeq	r0, lr, fp, lsl #6
 6d0:	012e0500 	teqeq	lr, r0, lsl #10
 6d4:	0e03193f 	mcreq	9, 0, r1, cr3, cr15, {1}
 6d8:	0b3b0b3a 	bleq	ec33c8 <__bss_end__+0xeb8408>
 6dc:	01111927 	tsteq	r1, r7, lsr #18
 6e0:	18400612 	stmdane	r0, {r1, r4, r9, sl}^
 6e4:	00194297 	mulseq	r9, r7, r2
 6e8:	11010000 	mrsne	r0, (UNDEF: 1)
 6ec:	130e2501 	movwne	r2, #58625	; 0xe501
 6f0:	1b0e030b 	blne	381324 <__bss_end__+0x376364>
 6f4:	1201110e 	andne	r1, r1, #-2147483645	; 0x80000003
 6f8:	00171006 	andseq	r1, r7, r6
 6fc:	01040200 	mrseq	r0, R12_usr
 700:	0b0b0e03 	bleq	2c3f14 <__bss_end__+0x2b8f54>
 704:	0b3b0b3a 	bleq	ec33f4 <__bss_end__+0xeb8434>
 708:	00001301 	andeq	r1, r0, r1, lsl #6
 70c:	03002803 	movweq	r2, #2051	; 0x803
 710:	000d1c0e 	andeq	r1, sp, lr, lsl #24
 714:	00280400 	eoreq	r0, r8, r0, lsl #8
 718:	0d1c0803 	ldceq	8, cr0, [ip, #-12]
 71c:	04050000 	streq	r0, [r5], #-0
 720:	3a0b0b01 	bcc	2c332c <__bss_end__+0x2b836c>
 724:	010b3b0b 	tsteq	fp, fp, lsl #22
 728:	06000013 			; <UNDEFINED> instruction: 0x06000013
 72c:	0e030113 	mcreq	1, 0, r0, cr3, cr3, {0}
 730:	0b3a0b0b 	bleq	e83364 <__bss_end__+0xe783a4>
 734:	13010b3b 	movwne	r0, #6971	; 0x1b3b
 738:	0d070000 	stceq	0, cr0, [r7, #-0]
 73c:	3a080300 	bcc	201344 <__bss_end__+0x1f6384>
 740:	490b3b0b 	stmdbmi	fp, {r0, r1, r3, r8, r9, fp, ip, sp}
 744:	0d0b0b13 	vstreq	d0, [fp, #-76]	; 0xffffffb4
 748:	380b0c0b 	stmdacc	fp, {r0, r1, r3, sl, fp}
 74c:	0800000b 	stmdaeq	r0, {r0, r1, r3}
 750:	0e03000d 	cdpeq	0, 0, cr0, cr3, cr13, {0}
 754:	0b3b0b3a 	bleq	ec3444 <__bss_end__+0xeb8484>
 758:	0b0b1349 	bleq	2c5484 <__bss_end__+0x2ba4c4>
 75c:	0b0c0b0d 	bleq	303398 <__bss_end__+0x2f83d8>
 760:	00000b38 	andeq	r0, r0, r8, lsr fp
 764:	0b002409 	bleq	9790 <intobin+0x18>
 768:	030b3e0b 	movweq	r3, #48651	; 0xbe0b
 76c:	0a00000e 	beq	7ac <_start-0x7854>
 770:	0e030016 	mcreq	0, 0, r0, cr3, cr6, {0}
 774:	0b3b0b3a 	bleq	ec3464 <__bss_end__+0xeb84a4>
 778:	00001349 	andeq	r1, r0, r9, asr #6
 77c:	4900350b 	stmdbmi	r0, {r0, r1, r3, r8, sl, ip, sp}
 780:	0c000013 	stceq	0, cr0, [r0], {19}
 784:	0803000d 	stmdaeq	r3, {r0, r2, r3}
 788:	0b3b0b3a 	bleq	ec3478 <__bss_end__+0xeb84b8>
 78c:	0b381349 	bleq	e054b8 <__bss_end__+0xdfa4f8>
 790:	0d0d0000 	stceq	0, cr0, [sp, #-0]
 794:	3a0e0300 	bcc	38139c <__bss_end__+0x3763dc>
 798:	490b3b0b 	stmdbmi	fp, {r0, r1, r3, r8, r9, fp, ip, sp}
 79c:	000b3813 	andeq	r3, fp, r3, lsl r8
 7a0:	002e0e00 	eoreq	r0, lr, r0, lsl #28
 7a4:	0e03193f 	mcreq	9, 0, r1, cr3, cr15, {1}
 7a8:	0b3b0b3a 	bleq	ec3498 <__bss_end__+0xeb84d8>
 7ac:	06120111 			; <UNDEFINED> instruction: 0x06120111
 7b0:	42961840 	addsmi	r1, r6, #64, 16	; 0x400000
 7b4:	0f000019 	svceq	0x00000019
 7b8:	193f012e 	ldmdbne	pc!, {r1, r2, r3, r5, r8}	; <UNPREDICTABLE>
 7bc:	0b3a0e03 	bleq	e83fd0 <__bss_end__+0xe79010>
 7c0:	19270b3b 	stmdbne	r7!, {r0, r1, r3, r4, r5, r8, r9, fp}
 7c4:	01111349 	tsteq	r1, r9, asr #6
 7c8:	18400612 	stmdane	r0, {r1, r4, r9, sl}^
 7cc:	01194296 			; <UNDEFINED> instruction: 0x01194296
 7d0:	10000013 	andne	r0, r0, r3, lsl r0
 7d4:	0e030005 	cdpeq	0, 0, cr0, cr3, cr5, {0}
 7d8:	0b3b0b3a 	bleq	ec34c8 <__bss_end__+0xeb8508>
 7dc:	18021349 	stmdane	r2, {r0, r3, r6, r8, r9, ip}
 7e0:	24110000 	ldrcs	r0, [r1], #-0
 7e4:	3e0b0b00 	vmlacc.f64	d0, d11, d0
 7e8:	0008030b 	andeq	r0, r8, fp, lsl #6
 7ec:	012e1200 	teqeq	lr, r0, lsl #4
 7f0:	0e03193f 	mcreq	9, 0, r1, cr3, cr15, {1}
 7f4:	0b3b0b3a 	bleq	ec34e4 <__bss_end__+0xeb8524>
 7f8:	13491927 	movtne	r1, #39207	; 0x9927
 7fc:	06120111 			; <UNDEFINED> instruction: 0x06120111
 800:	42971840 	addsmi	r1, r7, #64, 16	; 0x400000
 804:	00130119 	andseq	r0, r3, r9, lsl r1
 808:	00051300 	andeq	r1, r5, r0, lsl #6
 80c:	0b3a0803 	bleq	e82820 <__bss_end__+0xe77860>
 810:	13490b3b 	movtne	r0, #39739	; 0x9b3b
 814:	00001802 	andeq	r1, r0, r2, lsl #16
 818:	03003414 	movweq	r3, #1044	; 0x414
 81c:	3b0b3a0e 	blcc	2cf05c <__bss_end__+0x2c409c>
 820:	0213490b 	andseq	r4, r3, #180224	; 0x2c000
 824:	15000018 	strne	r0, [r0, #-24]
 828:	08030034 	stmdaeq	r3, {r2, r4, r5}
 82c:	0b3b0b3a 	bleq	ec351c <__bss_end__+0xeb855c>
 830:	18021349 	stmdane	r2, {r0, r3, r6, r8, r9, ip}
 834:	0f160000 	svceq	0x00160000
 838:	490b0b00 	stmdbmi	fp, {r8, r9, fp}
 83c:	00000013 	andeq	r0, r0, r3, lsl r0
 840:	25011101 	strcs	r1, [r1, #-257]	; 0x101
 844:	030b130e 	movweq	r1, #45838	; 0xb30e
 848:	110e1b0e 	tstne	lr, lr, lsl #22
 84c:	10061201 	andne	r1, r6, r1, lsl #4
 850:	02000017 	andeq	r0, r0, #23
 854:	0b0b0104 	bleq	2c0c6c <__bss_end__+0x2b5cac>
 858:	0b3b0b3a 	bleq	ec3548 <__bss_end__+0xeb8588>
 85c:	00001301 	andeq	r1, r0, r1, lsl #6
 860:	03002803 	movweq	r2, #2051	; 0x803
 864:	000d1c0e 	andeq	r1, sp, lr, lsl #24
 868:	012e0400 	teqeq	lr, r0, lsl #8
 86c:	0e03193f 	mcreq	9, 0, r1, cr3, cr15, {1}
 870:	0b3b0b3a 	bleq	ec3560 <__bss_end__+0xeb85a0>
 874:	01111927 	tsteq	r1, r7, lsr #18
 878:	18400612 	stmdane	r0, {r1, r4, r9, sl}^
 87c:	01194296 			; <UNDEFINED> instruction: 0x01194296
 880:	05000013 	streq	r0, [r0, #-19]
 884:	08030005 	stmdaeq	r3, {r0, r2}
 888:	0b3b0b3a 	bleq	ec3578 <__bss_end__+0xeb85b8>
 88c:	18021349 	stmdane	r2, {r0, r3, r6, r8, r9, ip}
 890:	05060000 	streq	r0, [r6, #-0]
 894:	3a0e0300 	bcc	38149c <__bss_end__+0x3764dc>
 898:	490b3b0b 	stmdbmi	fp, {r0, r1, r3, r8, r9, fp, ip, sp}
 89c:	00180213 	andseq	r0, r8, r3, lsl r2
 8a0:	00340700 	eorseq	r0, r4, r0, lsl #14
 8a4:	0b3a0803 	bleq	e828b8 <__bss_end__+0xe778f8>
 8a8:	13490b3b 	movtne	r0, #39739	; 0x9b3b
 8ac:	00001802 	andeq	r1, r0, r2, lsl #16
 8b0:	0b002408 	bleq	98d8 <getLength+0x78>
 8b4:	030b3e0b 	movweq	r3, #48651	; 0xbe0b
 8b8:	0900000e 	stmdbeq	r0, {r1, r2, r3}
 8bc:	13490101 	movtne	r0, #37121	; 0x9101
 8c0:	00001301 	andeq	r1, r0, r1, lsl #6
 8c4:	4900210a 	stmdbmi	r0, {r1, r3, r8, sp}
 8c8:	000b2f13 	andeq	r2, fp, r3, lsl pc
 8cc:	012e0b00 	teqeq	lr, r0, lsl #22
 8d0:	0e03193f 	mcreq	9, 0, r1, cr3, cr15, {1}
 8d4:	0b3b0b3a 	bleq	ec35c4 <__bss_end__+0xeb8604>
 8d8:	13491927 	movtne	r1, #39207	; 0x9927
 8dc:	06120111 			; <UNDEFINED> instruction: 0x06120111
 8e0:	42961840 	addsmi	r1, r6, #64, 16	; 0x400000
 8e4:	00130119 	andseq	r0, r3, r9, lsl r1
 8e8:	002e0c00 	eoreq	r0, lr, r0, lsl #24
 8ec:	0e03193f 	mcreq	9, 0, r1, cr3, cr15, {1}
 8f0:	0b3b0b3a 	bleq	ec35e0 <__bss_end__+0xeb8620>
 8f4:	01111927 	tsteq	r1, r7, lsr #18
 8f8:	18400612 	stmdane	r0, {r1, r4, r9, sl}^
 8fc:	00194296 	mulseq	r9, r6, r2
 900:	00340d00 	eorseq	r0, r4, r0, lsl #26
 904:	0b3a0e03 	bleq	e84118 <__bss_end__+0xe79158>
 908:	13490b3b 	movtne	r0, #39739	; 0x9b3b
 90c:	00001802 	andeq	r1, r0, r2, lsl #16
 910:	3f012e0e 	svccc	0x00012e0e
 914:	3a0e0319 	bcc	381580 <__bss_end__+0x3765c0>
 918:	270b3b0b 	strcs	r3, [fp, -fp, lsl #22]
 91c:	12011119 	andne	r1, r1, #1073741830	; 0x40000006
 920:	96184006 	ldrls	r4, [r8], -r6
 924:	00001942 	andeq	r1, r0, r2, asr #18
	...

Disassembly of section .debug_aranges:

00000000 <.debug_aranges>:
   0:	0000001c 	andeq	r0, r0, ip, lsl r0
   4:	00000002 	andeq	r0, r0, r2
   8:	00040000 	andeq	r0, r4, r0
   c:	00000000 	andeq	r0, r0, r0
  10:	00008068 	andeq	r8, r0, r8, rrx
  14:	000000b8 	strheq	r0, [r0], -r8
	...
  20:	0000001c 	andeq	r0, r0, ip, lsl r0
  24:	00bb0002 	adcseq	r0, fp, r2
  28:	00040000 	andeq	r0, r4, r0
  2c:	00000000 	andeq	r0, r0, r0
  30:	0000814c 	andeq	r8, r0, ip, asr #2
  34:	00000128 	andeq	r0, r0, r8, lsr #2
	...
  40:	0000001c 	andeq	r0, r0, ip, lsl r0
  44:	01700002 	cmneq	r0, r2
  48:	00040000 	andeq	r0, r4, r0
  4c:	00000000 	andeq	r0, r0, r0
  50:	00008274 	andeq	r8, r0, r4, ror r2
  54:	00000c28 	andeq	r0, r0, r8, lsr #24
	...
  60:	0000001c 	andeq	r0, r0, ip, lsl r0
  64:	0b3d0002 	bleq	f40074 <__bss_end__+0xf350b4>
  68:	00040000 	andeq	r0, r4, r0
  6c:	00000000 	andeq	r0, r0, r0
  70:	00008e9c 	muleq	r0, ip, lr
  74:	000001d0 	ldrdeq	r0, [r0], -r0	; <UNPREDICTABLE>
	...
  80:	0000001c 	andeq	r0, r0, ip, lsl r0
  84:	0c590002 	mrrceq	0, 0, r0, r9, cr2
  88:	00040000 	andeq	r0, r4, r0
  8c:	00000000 	andeq	r0, r0, r0
  90:	0000906c 	andeq	r9, r0, ip, rrx
  94:	00000158 	andeq	r0, r0, r8, asr r1
	...
  a0:	00000014 	andeq	r0, r0, r4, lsl r0
  a4:	0d1f0002 	ldceq	0, cr0, [pc, #-8]	; a4 <_start-0x7f5c>
  a8:	00040000 	andeq	r0, r4, r0
	...
  b8:	0000001c 	andeq	r0, r0, ip, lsl r0
  bc:	0d440002 	stcleq	0, cr0, [r4, #-8]
  c0:	00040000 	andeq	r0, r4, r0
  c4:	00000000 	andeq	r0, r0, r0
  c8:	000091c4 	andeq	r9, r0, r4, asr #3
  cc:	000001b8 			; <UNDEFINED> instruction: 0x000001b8
	...
  d8:	0000001c 	andeq	r0, r0, ip, lsl r0
  dc:	0e970002 	cdpeq	0, 9, cr0, cr7, cr2, {0}
  e0:	00040000 	andeq	r0, r4, r0
  e4:	00000000 	andeq	r0, r0, r0
  e8:	0000937c 	andeq	r9, r0, ip, ror r3
  ec:	00000e68 	andeq	r0, r0, r8, ror #28
	...
  f8:	0000001c 	andeq	r0, r0, ip, lsl r0
  fc:	142a0002 	strtne	r0, [sl], #-2
 100:	00040000 	andeq	r0, r4, r0
 104:	00000000 	andeq	r0, r0, r0
 108:	0000a1e4 	andeq	sl, r0, r4, ror #3
 10c:	000001fc 	strdeq	r0, [r0], -ip
	...
 118:	0000001c 	andeq	r0, r0, ip, lsl r0
 11c:	15780002 	ldrbne	r0, [r8, #-2]!
 120:	00040000 	andeq	r0, r4, r0
 124:	00000000 	andeq	r0, r0, r0
 128:	0000a4d8 	ldrdeq	sl, [r0], -r8
 12c:	000000c4 	andeq	r0, r0, r4, asr #1
	...
 138:	0000001c 	andeq	r0, r0, ip, lsl r0
 13c:	16960002 	ldrne	r0, [r6], r2
 140:	00040000 	andeq	r0, r4, r0
 144:	00000000 	andeq	r0, r0, r0
 148:	0000a59c 	muleq	r0, ip, r5
 14c:	00000554 	andeq	r0, r0, r4, asr r5
	...
 158:	0000001c 	andeq	r0, r0, ip, lsl r0
 15c:	1b460002 	blne	118016c <__bss_end__+0x11751ac>
 160:	00040000 	andeq	r0, r4, r0
 164:	00000000 	andeq	r0, r0, r0
 168:	0000aaf0 	strdeq	sl, [r0], -r0
 16c:	000004ac 	andeq	r0, r0, ip, lsr #9
	...

Disassembly of section .debug_line:

00000000 <.debug_line>:
   0:	0000004b 	andeq	r0, r0, fp, asr #32
   4:	001f0002 	andseq	r0, pc, r2
   8:	01020000 	mrseq	r0, (UNDEF: 2)
   c:	000d0efb 	strdeq	r0, [sp], -fp
  10:	01010101 	tsteq	r1, r1, lsl #2
  14:	01000000 	mrseq	r0, (UNDEF: 0)
  18:	00010000 	andeq	r0, r1, r0
  1c:	61747363 	cmnvs	r4, r3, ror #6
  20:	632e7472 	teqvs	lr, #1912602624	; 0x72000000
  24:	00000000 	andeq	r0, r0, r0
  28:	02050000 	andeq	r0, r5, #0
  2c:	00008068 	andeq	r8, r0, r8, rrx
  30:	68010903 	stmdavs	r1, {r0, r1, r8, fp}
  34:	002f4b4b 	eoreq	r4, pc, fp, asr #22
  38:	9d010402 	cfstrsls	mvf0, [r1, #-8]
  3c:	4b4b4b89 	blmi	12d2e68 <__bss_end__+0x12c7ea8>
  40:	0067832f 	rsbeq	r8, r7, pc, lsr #6
  44:	63010402 	movwvs	r0, #5122	; 0x1402
  48:	0e022f88 	cdpeq	15, 0, cr2, cr2, cr8, {4}
  4c:	48010100 	stmdami	r1, {r8}
  50:	02000000 	andeq	r0, r0, #0
  54:	00001c00 	andeq	r1, r0, r0, lsl #24
  58:	fb010200 	blx	40862 <__bss_end__+0x358a2>
  5c:	01000d0e 	tsteq	r0, lr, lsl #26
  60:	00010101 	andeq	r0, r1, r1, lsl #2
  64:	00010000 	andeq	r0, r1, r0
  68:	6c000100 	stfvss	f0, [r0], {-0}
  6c:	632e6465 	teqvs	lr, #1694498816	; 0x65000000
  70:	00000000 	andeq	r0, r0, r0
  74:	02050000 	andeq	r0, r5, #0
  78:	0000814c 	andeq	r8, r0, ip, asr #2
  7c:	67011303 	strvs	r1, [r1, -r3, lsl #6]
  80:	67676769 	strbvs	r6, [r7, -r9, ror #14]!
  84:	674b9f68 	strbvs	r9, [fp, -r8, ror #30]
  88:	674ba067 	strbvs	sl, [fp, -r7, rrx]
  8c:	4b4ba067 	blmi	12e8230 <__bss_end__+0x12dd270>
  90:	4c834ba0 	vstmiami	r3, {d4-d19}
  94:	0a024b30 	beq	92d5c <__bss_end__+0x87d9c>
  98:	28010100 	stmdacs	r1, {r8}
  9c:	02000001 	andeq	r0, r0, #1
  a0:	00002700 	andeq	r2, r0, r0, lsl #14
  a4:	fb010200 	blx	408ae <__bss_end__+0x358ee>
  a8:	01000d0e 	tsteq	r0, lr, lsl #26
  ac:	00010101 	andeq	r0, r1, r1, lsl #2
  b0:	00010000 	andeq	r0, r1, r0
  b4:	67000100 	strvs	r0, [r0, -r0, lsl #2]
  b8:	2e6f6970 	mcrcs	9, 3, r6, cr15, cr0, {3}
  bc:	00000063 	andeq	r0, r0, r3, rrx
  c0:	69706700 	ldmdbvs	r0!, {r8, r9, sl, sp, lr}^
  c4:	00682e6f 	rsbeq	r2, r8, pc, ror #28
  c8:	00000000 	andeq	r0, r0, r0
  cc:	74020500 	strvc	r0, [r2], #-1280	; 0x500
  d0:	03000082 	movweq	r0, #130	; 0x82
  d4:	9f0100cf 	svcls	0x000100cf
  d8:	4bc908d7 	blmi	ff24243c <__bss_end__+0xff23747c>
  dc:	08e70867 	stmiaeq	r7!, {r0, r1, r2, r5, r6, fp}^
  e0:	bb9fa4ae 	bllt	fe7e93a0 <__bss_end__+0xfe7de3e0>
  e4:	21084bd8 	ldrdcs	r4, [r8, -r8]
  e8:	820c03f4 	andhi	r0, ip, #244, 6	; 0xd0000003
  ec:	3e089f83 	cdpcc	15, 0, cr9, cr8, cr3, {4}
  f0:	4c4c4c4c 	mcrrmi	12, 4, r4, ip, cr12
  f4:	08304c4c 	ldmdaeq	r0!, {r2, r3, r6, sl, fp, lr}
  f8:	9108835c 	tstls	r8, ip, asr r3
  fc:	6783a02f 	strvs	sl, [r3, pc, lsr #32]
 100:	83bc304c 			; <UNDEFINED> instruction: 0x83bc304c
 104:	678384bb 			; <UNDEFINED> instruction: 0x678384bb
 108:	4c678384 	stclmi	3, cr8, [r7], #-528	; 0xfffffdf0
 10c:	6783bc30 			; <UNDEFINED> instruction: 0x6783bc30
 110:	4c678384 	stclmi	3, cr8, [r7], #-528	; 0xfffffdf0
 114:	6783bc30 			; <UNDEFINED> instruction: 0x6783bc30
 118:	4c678384 	stclmi	3, cr8, [r7], #-528	; 0xfffffdf0
 11c:	6783bc30 			; <UNDEFINED> instruction: 0x6783bc30
 120:	4c678385 	stclmi	3, cr8, [r7], #-532	; 0xfffffdec
 124:	6783bc30 			; <UNDEFINED> instruction: 0x6783bc30
 128:	4c678384 	stclmi	3, cr8, [r7], #-528	; 0xfffffdf0
 12c:	6783bc30 			; <UNDEFINED> instruction: 0x6783bc30
 130:	682f4b85 	stmdavs	pc!, {r0, r2, r7, r8, r9, fp, lr}	; <UNPREDICTABLE>
 134:	83849f83 	orrhi	r9, r4, #524	; 0x20c
 138:	d783849f 			; <UNDEFINED> instruction: 0xd783849f
 13c:	84d78384 	ldrbhi	r8, [r7], #900	; 0x384
 140:	04020083 	streq	r0, [r2], #-131	; 0x83
 144:	069e0601 	ldreq	r0, [lr], r1, lsl #12
 148:	6767304b 	strbvs	r3, [r7, -fp, asr #32]!
 14c:	842f67bb 	strthi	r6, [pc], #-1979	; 154 <_start-0x7eac>
 150:	83848383 	orrhi	r8, r4, #201326594	; 0xc000002
 154:	009f8483 	addseq	r8, pc, r3, lsl #9
 158:	06010402 	streq	r0, [r1], -r2, lsl #8
 15c:	004b069e 	umaaleq	r0, fp, lr, r6
 160:	06010402 	streq	r0, [r1], -r2, lsl #8
 164:	2f4c069e 	svccs	0x004c069e
 168:	9f696767 	svcls	0x00696767
 16c:	2f67bd85 	svccs	0x0067bd85
 170:	6783842f 	strvs	r8, [r3, pc, lsr #8]
 174:	67bb672f 	ldrvs	r6, [fp, pc, lsr #14]!
 178:	67a2842f 	strvs	r8, [r2, pc, lsr #8]!
 17c:	69678467 	stmdbvs	r7!, {r0, r1, r2, r5, r6, sl, pc}^
 180:	2f67bb67 	svccs	0x0067bb67
 184:	68678668 	stmdavs	r7!, {r3, r5, r6, r9, sl, pc}^
 188:	67bb672f 	ldrvs	r6, [fp, pc, lsr #14]!
 18c:	6786682f 	strvs	r6, [r6, pc, lsr #16]
 190:	bb672f67 	bllt	19cbf34 <__bss_end__+0x19c0f74>
 194:	86682f67 	strbthi	r2, [r8], -r7, ror #30
 198:	672f6767 	strvs	r6, [pc, -r7, ror #14]!
 19c:	678684bb 			; <UNDEFINED> instruction: 0x678684bb
 1a0:	83672f67 	cmnhi	r7, #412	; 0x19c
 1a4:	87672f67 	strbhi	r2, [r7, -r7, ror #30]!
 1a8:	304c6783 	subcc	r6, ip, r3, lsl #15
 1ac:	844b83bb 	strbhi	r8, [fp], #-955	; 0x3bb
 1b0:	674c9f9f 			; <UNDEFINED> instruction: 0x674c9f9f
 1b4:	674cbb67 	strbvs	fp, [ip, -r7, ror #22]
 1b8:	2f4b674c 	svccs	0x004b674c
 1bc:	686783a0 	stmdavs	r7!, {r5, r7, r8, r9, pc}^
 1c0:	06026783 	streq	r6, [r2], -r3, lsl #15
 1c4:	5e010100 	adfpls	f0, f1, f0
 1c8:	02000000 	andeq	r0, r0, #0
 1cc:	00001e00 	andeq	r1, r0, r0, lsl #28
 1d0:	fb010200 	blx	409da <__bss_end__+0x35a1a>
 1d4:	01000d0e 	tsteq	r0, lr, lsl #26
 1d8:	00010101 	andeq	r0, r1, r1, lsl #2
 1dc:	00010000 	andeq	r0, r1, r0
 1e0:	74000100 	strvc	r0, [r0], #-256	; 0x100
 1e4:	72656d69 	rsbvc	r6, r5, #6720	; 0x1a40
 1e8:	0000632e 	andeq	r6, r0, lr, lsr #6
 1ec:	00000000 	andeq	r0, r0, r0
 1f0:	8e9c0205 	cdphi	2, 9, cr0, cr12, cr5, {0}
 1f4:	13030000 	movwne	r0, #12288	; 0x3000
 1f8:	68674b01 	stmdavs	r7!, {r0, r8, r9, fp, lr}^
 1fc:	4bd86768 	blmi	ff619fa4 <__bss_end__+0xff60efe4>
 200:	0083a067 	addeq	sl, r3, r7, rrx
 204:	06010402 	streq	r0, [r1], -r2, lsl #8
 208:	67a1062e 	strvs	r0, [r1, lr, lsr #12]!
 20c:	4b83a083 	blmi	fe0e8420 <__bss_end__+0xfe0dd460>
 210:	01040200 	mrseq	r0, R12_usr
 214:	d9062e06 	stmdble	r6, {r1, r2, r9, sl, fp, sp}
 218:	83a08367 	movhi	r8, #-1677721599	; 0x9c000001
 21c:	a09f6883 	addsge	r6, pc, r3, lsl #17
 220:	4d308383 	ldcmi	3, cr8, [r0, #-524]!	; 0xfffffdf4
 224:	01000a02 	tsteq	r0, r2, lsl #20
 228:	00005901 	andeq	r5, r0, r1, lsl #18
 22c:	1f000200 	svcne	0x00000200
 230:	02000000 	andeq	r0, r0, #0
 234:	0d0efb01 	vstreq	d15, [lr, #-4]
 238:	01010100 	mrseq	r0, (UNDEF: 17)
 23c:	00000001 	andeq	r0, r0, r1
 240:	01000001 	tsteq	r0, r1
 244:	73797300 	cmnvc	r9, #0, 6
 248:	2e6d6574 	mcrcs	5, 3, r6, cr13, cr4, {3}
 24c:	00000063 	andeq	r0, r0, r3, rrx
 250:	05000000 	streq	r0, [r0, #-0]
 254:	00906c02 	addseq	r6, r0, r2, lsl #24
 258:	4b681400 	blmi	1a05260 <__bss_end__+0x19fa2a0>
 25c:	4b4b4d67 	blmi	12d3800 <__bss_end__+0x12c8840>
 260:	834b6868 	movthi	r6, #47208	; 0xb868
 264:	4c4b4b4d 	mcrrmi	11, 4, r4, fp, cr13
 268:	2f2f4b68 	svccs	0x002f4b68
 26c:	2f4b6a2f 	svccs	0x004b6a2f
 270:	4c682f2f 	stclmi	15, cr2, [r8], #-188	; 0xffffff44
 274:	4b4c684b 	blmi	131a3a8 <__bss_end__+0x130f3e8>
 278:	4d4c4d68 	stclmi	13, cr4, [ip, #-416]	; 0xfffffe60
 27c:	4c4d4d4c 	mcrrmi	13, 4, r4, sp, cr12
 280:	0006024b 	andeq	r0, r6, fp, asr #4
 284:	00190101 	andseq	r0, r9, r1, lsl #2
 288:	00020000 	andeq	r0, r2, r0
 28c:	00000013 	andeq	r0, r0, r3, lsl r0
 290:	0efb0102 	cdpeq	1, 15, cr0, cr11, cr2, {0}
 294:	0101000d 	tsteq	r1, sp
 298:	00000101 	andeq	r0, r0, r1, lsl #2
 29c:	00000100 	andeq	r0, r0, r0, lsl #2
 2a0:	67000001 	strvs	r0, [r0, -r1]
 2a4:	02000000 	andeq	r0, r0, #0
 2a8:	00001d00 	andeq	r1, r0, r0, lsl #26
 2ac:	fb010200 	blx	40ab6 <__bss_end__+0x35af6>
 2b0:	01000d0e 	tsteq	r0, lr, lsl #26
 2b4:	00010101 	andeq	r0, r1, r1, lsl #2
 2b8:	00010000 	andeq	r0, r1, r0
 2bc:	75000100 	strvc	r0, [r0, #-256]	; 0x100
 2c0:	2e747261 	cdpcs	2, 7, cr7, cr4, cr1, {3}
 2c4:	00000063 	andeq	r0, r0, r3, rrx
 2c8:	05000000 	streq	r0, [r0, #-0]
 2cc:	0091c402 	addseq	ip, r1, r2, lsl #8
 2d0:	01330300 	teqeq	r3, r0, lsl #6
 2d4:	83684c67 	cmnhi	r8, #26368	; 0x6700
 2d8:	83838383 	orrhi	r8, r3, #201326594	; 0xc000002
 2dc:	68678486 	stmdavs	r7!, {r1, r2, r7, sl, pc}^
 2e0:	004cbd83 	subeq	fp, ip, r3, lsl #27
 2e4:	06010402 	streq	r0, [r1], -r2, lsl #8
 2e8:	9f2f06ba 	svcls	0x002f06ba
 2ec:	020083a1 	andeq	r8, r0, #-2080374782	; 0x84000002
 2f0:	66060104 	strvs	r0, [r6], -r4, lsl #2
 2f4:	02004c06 	andeq	r4, r0, #1536	; 0x600
 2f8:	ba060104 	blt	180710 <__bss_end__+0x175750>
 2fc:	859f2f06 	ldrhi	r2, [pc, #3846]	; 120a <_start-0x6df6>
 300:	0402004c 	streq	r0, [r2], #-76	; 0x4c
 304:	06ba0601 	ldrteq	r0, [sl], r1, lsl #12
 308:	000a022f 	andeq	r0, sl, pc, lsr #4
 30c:	024f0101 	subeq	r0, pc, #1073741824	; 0x40000000
 310:	00020000 	andeq	r0, r2, r0
 314:	0000006e 	andeq	r0, r0, lr, rrx
 318:	0efb0102 	cdpeq	1, 15, cr0, cr11, cr2, {0}
 31c:	0101000d 	tsteq	r1, sp
 320:	00000101 	andeq	r0, r0, r1, lsl #2
 324:	00000100 	andeq	r0, r0, r0, lsl #2
 328:	73552f01 	cmpvc	r5, #1, 30
 32c:	2f737265 	svccs	0x00737265
 330:	68736972 	ldmdavs	r3!, {r1, r4, r5, r6, r8, fp, sp, lr}^
 334:	69622f69 	stmdbvs	r2!, {r0, r3, r5, r6, r8, r9, sl, fp, sp}^
 338:	696c2f6e 	stmdbvs	ip!, {r1, r2, r3, r5, r6, r8, r9, sl, fp, sp}^
 33c:	63672f62 	cmnvs	r7, #392	; 0x188
 340:	72612f63 	rsbvc	r2, r1, #396	; 0x18c
 344:	6f6e2d6d 	svcvs	0x006e2d6d
 348:	652d656e 	strvs	r6, [sp, #-1390]!	; 0x56e
 34c:	2f696261 	svccs	0x00696261
 350:	2e382e34 	mrccs	14, 1, r2, cr8, cr4, {1}
 354:	6e692f33 	mcrvs	15, 3, r2, cr9, cr3, {1}
 358:	64756c63 	ldrbtvs	r6, [r5], #-3171	; 0xc63
 35c:	70000065 	andvc	r0, r0, r5, rrx
 360:	746e6972 	strbtvc	r6, [lr], #-2418	; 0x972
 364:	00632e66 	rsbeq	r2, r3, r6, ror #28
 368:	73000000 	movwvc	r0, #0
 36c:	72616474 	rsbvc	r6, r1, #116, 8	; 0x74000000
 370:	00682e67 	rsbeq	r2, r8, r7, ror #28
 374:	3c000001 	stccc	0, cr0, [r0], {1}
 378:	6c697562 	cfstr64vs	mvdx7, [r9], #-392	; 0xfffffe78
 37c:	6e692d74 	mcrvs	13, 3, r2, cr9, cr4, {3}
 380:	0000003e 	andeq	r0, r0, lr, lsr r0
 384:	05000000 	streq	r0, [r0, #-0]
 388:	00937c02 	addseq	r7, r3, r2, lsl #24
 38c:	011c0300 	tsteq	ip, r0, lsl #6
 390:	004c4bd8 	ldrdeq	r4, [ip], #-184	; 0xffffff48
 394:	06010402 	streq	r0, [r1], -r2, lsl #8
 398:	67670666 	strbvs	r0, [r7, -r6, ror #12]!
 39c:	022f674d 	eoreq	r6, pc, #20185088	; 0x1340000
 3a0:	00d71328 	sbcseq	r1, r7, r8, lsr #6
 3a4:	63010402 	movwvs	r0, #5122	; 0x1402
 3a8:	02006788 	andeq	r6, r0, #136, 14	; 0x2200000
 3ac:	00670204 	rsbeq	r0, r7, r4, lsl #4
 3b0:	08020402 	stmdaeq	r2, {r1, sl}
 3b4:	04020075 	streq	r0, [r2], #-117	; 0x75
 3b8:	02006702 	andeq	r6, r0, #524288	; 0x80000
 3bc:	00630204 	rsbeq	r0, r3, r4, lsl #4
 3c0:	06010402 	streq	r0, [r1], -r2, lsl #8
 3c4:	67880666 	strvs	r0, [r8, r6, ror #12]
 3c8:	02040200 	andeq	r0, r4, #0, 4
 3cc:	04020067 	streq	r0, [r2], #-103	; 0x67
 3d0:	003d0802 	eorseq	r0, sp, r2, lsl #16
 3d4:	67020402 	strvs	r0, [r2, -r2, lsl #8]
 3d8:	02040200 	andeq	r0, r4, #0, 4
 3dc:	04020063 	streq	r0, [r2], #-99	; 0x63
 3e0:	06660601 	strbteq	r0, [r6], -r1, lsl #12
 3e4:	69d7676d 	ldmibvs	r7, {r0, r2, r3, r5, r6, r8, r9, sl, sp, lr}^
 3e8:	04020085 	streq	r0, [r2], #-133	; 0x85
 3ec:	00820601 	addeq	r0, r2, r1, lsl #12
 3f0:	66020402 	strvs	r0, [r2], -r2, lsl #8
 3f4:	03040200 	movweq	r0, #16896	; 0x4200
 3f8:	0402002e 	streq	r0, [r2], #-46	; 0x2e
 3fc:	002f0603 	eoreq	r0, pc, r3, lsl #12
 400:	67020402 	strvs	r0, [r2, -r2, lsl #8]
 404:	02040200 	andeq	r0, r4, #0, 4
 408:	02008f08 	andeq	r8, r0, #8, 30
 40c:	66060104 	strvs	r0, [r6], -r4, lsl #2
 410:	bbbf8506 	bllt	fefe1830 <__bss_end__+0xfefd6870>
 414:	02040200 	andeq	r0, r4, #0, 4
 418:	04020067 	streq	r0, [r2], #-103	; 0x67
 41c:	02009d02 	andeq	r9, r0, #2, 26	; 0x80
 420:	66060104 	strvs	r0, [r6], -r4, lsl #2
 424:	0200bd06 	andeq	fp, r0, #384	; 0x180
 428:	00670204 	rsbeq	r0, r7, r4, lsl #4
 42c:	08020402 	stmdaeq	r2, {r1, sl}
 430:	040200ff 	streq	r0, [r2], #-255	; 0xff
 434:	06660601 	strbteq	r0, [r6], -r1, lsl #12
 438:	0330a185 	teqeq	r0, #1073741857	; 0x40000021
 43c:	f3d7ba09 	vmlsl.u16	<illegal reg q13.5>, d7, d9
 440:	d7820903 	strle	r0, [r2, r3, lsl #18]
 444:	820903f3 	andhi	r0, r9, #-872415229	; 0xcc000003
 448:	0a03f3d7 	beq	fd3ac <__bss_end__+0xf23ec>
 44c:	bc4bbc82 	mcrrlt	12, 8, fp, fp, cr2
 450:	4da0a62f 	stcmi	6, cr10, [r0, #188]!	; 0xbc
 454:	8583304b 	strhi	r3, [r3, #75]	; 0x4b
 458:	304b4bbb 	strhcc	r4, [fp], #-187	; 0xffffff45
 45c:	bb699f67 	bllt	1a68200 <__bss_end__+0x1a5d240>
 460:	040200a0 	streq	r0, [r2], #-160	; 0xa0
 464:	ba760301 	blt	1d81070 <__bss_end__+0x1d760b0>
 468:	02040200 	andeq	r0, r4, #0, 4
 46c:	03066606 	movweq	r6, #26118	; 0x6606
 470:	2202660e 	andcs	r6, r2, #14680064	; 0xe00000
 474:	67306714 			; <UNDEFINED> instruction: 0x67306714
 478:	672f9f30 			; <UNDEFINED> instruction: 0x672f9f30
 47c:	01040200 	mrseq	r0, R12_usr
 480:	9f308664 	svcls	0x00308664
 484:	00672fbb 	strhteq	r2, [r7], #-251	; 0xffffff05
 488:	64010402 	strvs	r0, [r1], #-1026	; 0x402
 48c:	9f304b86 	svcls	0x00304b86
 490:	00672fbb 	strhteq	r2, [r7], #-251	; 0xffffff05
 494:	64010402 	strvs	r0, [r1], #-1026	; 0x402
 498:	9f304b86 	svcls	0x00304b86
 49c:	00672fbb 	strhteq	r2, [r7], #-251	; 0xffffff05
 4a0:	64010402 	strvs	r0, [r1], #-1026	; 0x402
 4a4:	00314b86 	eorseq	r4, r1, r6, lsl #23
 4a8:	03010402 	movweq	r0, #5122	; 0x1402
 4ac:	03667fbe 	cmneq	r6, #760	; 0x2f8
 4b0:	678200c4 	strvs	r0, [r2, r4, asr #1]
 4b4:	820b032f 	andhi	r0, fp, #-1140850688	; 0xbc000000
 4b8:	2e022208 	cdpcs	2, 0, cr2, cr2, cr8, {0}
 4bc:	83304c13 	teqhi	r0, #4864	; 0x1300
 4c0:	4bbb85bb 	blmi	feee1bb4 <__bss_end__+0xfeed6bf4>
 4c4:	9f67304b 	svcls	0x0067304b
 4c8:	00a0bb69 	adceq	fp, r0, r9, ror #22
 4cc:	03010402 	movweq	r0, #5122	; 0x1402
 4d0:	0200ba76 	andeq	fp, r0, #483328	; 0x76000
 4d4:	66060204 	strvs	r0, [r6], -r4, lsl #4
 4d8:	660f0306 	strvs	r0, [pc], -r6, lsl #6
 4dc:	9f142202 	svcls	0x00142202
 4e0:	9f9f3067 	svcls	0x009f3067
 4e4:	2f9f3067 	svccs	0x009f3067
 4e8:	020067bb 	andeq	r6, r0, #49020928	; 0x2ec0000
 4ec:	87630104 	strbhi	r0, [r3, -r4, lsl #2]!
 4f0:	9f9f8330 	svcls	0x009f8330
 4f4:	0200672f 	andeq	r6, r0, #12320768	; 0xbc0000
 4f8:	86640104 	strbthi	r0, [r4], -r4, lsl #2
 4fc:	9f9f8330 	svcls	0x009f8330
 500:	0200672f 	andeq	r6, r0, #12320768	; 0xbc0000
 504:	86640104 	strbthi	r0, [r4], -r4, lsl #2
 508:	9f9f8330 	svcls	0x009f8330
 50c:	0200672f 	andeq	r6, r0, #12320768	; 0xbc0000
 510:	86640104 	strbthi	r0, [r4], -r4, lsl #2
 514:	04020031 	streq	r0, [r2], #-49	; 0x31
 518:	7fb80301 	svcvc	0x00b80301
 51c:	00cb0366 	sbceq	r0, fp, r6, ror #6
 520:	4b4b9f82 	blmi	12e8330 <__bss_end__+0x12dd370>
 524:	0067bb2f 	rsbeq	fp, r7, pc, lsr #22
 528:	63010402 	movwvs	r0, #5122	; 0x1402
 52c:	02040200 	andeq	r0, r4, #0, 4
 530:	a4068206 	strge	r8, [r6], #-518	; 0x206
 534:	0200672f 	andeq	r6, r0, #12320768	; 0xbc0000
 538:	87640104 	strbhi	r0, [r4, -r4, lsl #2]!
 53c:	8a4b679f 	bhi	12da3c0 <__bss_end__+0x12cf400>
 540:	02834cbd 	addeq	r4, r3, #48384	; 0xbd00
 544:	bd67132e 	stcllt	3, cr1, [r7, #-184]!	; 0xffffff48
 548:	00832f4b 	addeq	r2, r3, fp, asr #30
 54c:	64010402 	strvs	r0, [r1], #-1026	; 0x402
 550:	bda14c86 	stclt	12, cr4, [r1, #536]!	; 0x218
 554:	2e02834c 	cdpcs	3, 0, cr8, cr2, cr12, {2}
 558:	4bbd6713 	blmi	fef5a1ac <__bss_end__+0xfef4f1ec>
 55c:	01000a02 	tsteq	r0, r2, lsl #20
 560:	00006f01 	andeq	r6, r0, r1, lsl #30
 564:	1e000200 	cdpne	2, 0, cr0, cr0, cr0, {0}
 568:	02000000 	andeq	r0, r0, #0
 56c:	0d0efb01 	vstreq	d15, [lr, #-4]
 570:	01010100 	mrseq	r0, (UNDEF: 17)
 574:	00000001 	andeq	r0, r0, r1
 578:	01000001 	tsteq	r0, r1
 57c:	69747500 	ldmdbvs	r4!, {r8, sl, ip, sp, lr}^
 580:	632e736c 	teqvs	lr, #108, 6	; 0xb0000001
 584:	00000000 	andeq	r0, r0, r0
 588:	02050000 	andeq	r0, r5, #0
 58c:	0000a1e4 	andeq	sl, r0, r4, ror #3
 590:	2f4b9f14 	svccs	0x004b9f14
 594:	04020067 	streq	r0, [r2], #-103	; 0x67
 598:	2f868001 	svccs	0x00868001
 59c:	bb2f9f85 	bllt	be83b8 <__bss_end__+0xbdd3f8>
 5a0:	02008567 	andeq	r8, r0, #432013312	; 0x19c00000
 5a4:	7a030104 	bvc	c09bc <__bss_end__+0xb59fc>
 5a8:	040200d6 	streq	r0, [r2], #-214	; 0xd6
 5ac:	06820602 	streq	r0, [r2], r2, lsl #12
 5b0:	bb820903 	bllt	fe0829c4 <__bss_end__+0xfe077a04>
 5b4:	832f9f84 	teqhi	pc, #132, 30	; 0x210
 5b8:	04020067 	streq	r0, [r2], #-103	; 0x67
 5bc:	67876301 	strvs	r6, [r7, r1, lsl #6]
 5c0:	4bbb852f 	blmi	feee1a84 <__bss_end__+0xfeed6ac4>
 5c4:	6767832f 	strbvs	r8, [r7, -pc, lsr #6]!
 5c8:	01040200 	mrseq	r0, R12_usr
 5cc:	022f8862 	eoreq	r8, pc, #6422528	; 0x620000
 5d0:	01010008 	tsteq	r1, r8
 5d4:	00000041 	andeq	r0, r0, r1, asr #32
 5d8:	00210002 	eoreq	r0, r1, r2
 5dc:	01020000 	mrseq	r0, (UNDEF: 2)
 5e0:	000d0efb 	strdeq	r0, [sp], -fp
 5e4:	01010101 	tsteq	r1, r1, lsl #2
 5e8:	01000000 	mrseq	r0, (UNDEF: 0)
 5ec:	00010000 	andeq	r0, r1, r0
 5f0:	646e6168 	strbtvs	r6, [lr], #-360	; 0x168
 5f4:	7372656c 	cmnvc	r2, #108, 10	; 0x1b000000
 5f8:	0000632e 	andeq	r6, r0, lr, lsr #6
 5fc:	00000000 	andeq	r0, r0, r0
 600:	a4d80205 	ldrbge	r0, [r8], #517	; 0x205
 604:	83010000 	movwhi	r0, #4096	; 0x1000
 608:	82678269 	rsbhi	r8, r7, #-1879048186	; 0x90000006
 60c:	82678268 	rsbhi	r8, r7, #104, 4	; 0x80000006
 610:	82678267 	rsbhi	r8, r7, #1879048198	; 0x70000006
 614:	01000602 	tsteq	r0, r2, lsl #12
 618:	0000cb01 	andeq	ip, r0, r1, lsl #22
 61c:	2f000200 	svccs	0x00000200
 620:	02000000 	andeq	r0, r0, #0
 624:	0d0efb01 	vstreq	d15, [lr, #-4]
 628:	01010100 	mrseq	r0, (UNDEF: 17)
 62c:	00000001 	andeq	r0, r0, r1
 630:	01000001 	tsteq	r0, r1
 634:	69707300 	ldmdbvs	r0!, {r8, r9, ip, sp, lr}^
 638:	0000632e 	andeq	r6, r0, lr, lsr #6
 63c:	70730000 	rsbsvc	r0, r3, r0
 640:	00682e69 	rsbeq	r2, r8, r9, ror #28
 644:	67000000 	strvs	r0, [r0, -r0]
 648:	2e6f6970 	mcrcs	9, 3, r6, cr15, cr0, {3}
 64c:	00000068 	andeq	r0, r0, r8, rrx
 650:	05000000 	streq	r0, [r0, #-0]
 654:	00a59c02 	adceq	r9, r5, r2, lsl #24
 658:	00db0300 	sbcseq	r0, fp, r0, lsl #6
 65c:	67674b01 	strbvs	r4, [r7, -r1, lsl #22]!
 660:	68676767 	stmdavs	r7!, {r0, r1, r2, r5, r6, r8, r9, sl, sp, lr}^
 664:	00302f9f 	mlaseq	r0, pc, pc, r2	; <UNPREDICTABLE>
 668:	06010402 	streq	r0, [r1], -r2, lsl #8
 66c:	004b0666 	subeq	r0, fp, r6, ror #12
 670:	06010402 	streq	r0, [r1], -r2, lsl #8
 674:	bb4d0666 	bllt	1342014 <__bss_end__+0x1337054>
 678:	9fbdbbd9 	svcls	0x00bdbbd9
 67c:	bbbbbba1 	bllt	feeef508 <__bss_end__+0xfeee4548>
 680:	9f9f9fbd 	svcls	0x009f9fbd
 684:	9f9f9f9f 	svcls	0x009f9f9f
 688:	9f9f9f9f 	svcls	0x009f9f9f
 68c:	9f9f9f9f 	svcls	0x009f9f9f
 690:	75089f9f 	strvc	r9, [r8, #-3999]	; 0xf9f
 694:	2f9f7508 	svccs	0x009f7508
 698:	00a0a02f 	adceq	sl, r0, pc, lsr #32
 69c:	06010402 	streq	r0, [r1], -r2, lsl #8
 6a0:	83f3062e 	mvnshi	r0, #48234496	; 0x2e00000
 6a4:	01040200 	mrseq	r0, R12_usr
 6a8:	f3062e06 	vcge.f32	d2, d6, d6
 6ac:	01040200 	mrseq	r0, R12_usr
 6b0:	f3062e06 	vcge.f32	d2, d6, d6
 6b4:	d7a02f9f 			; <UNDEFINED> instruction: 0xd7a02f9f
 6b8:	01040200 	mrseq	r0, R12_usr
 6bc:	4b066606 	blmi	199edc <__bss_end__+0x18ef1c>
 6c0:	01040200 	mrseq	r0, R12_usr
 6c4:	4b066606 	blmi	199ee4 <__bss_end__+0x18ef24>
 6c8:	a09f5908 	addsge	r5, pc, r8, lsl #18
 6cc:	02040200 	andeq	r0, r4, #0, 4
 6d0:	04020067 	streq	r0, [r2], #-103	; 0x67
 6d4:	00730802 	rsbseq	r0, r3, r2, lsl #16
 6d8:	06010402 	streq	r0, [r1], -r2, lsl #8
 6dc:	9f850666 	svcls	0x00850666
 6e0:	022f2f9f 	eoreq	r2, pc, #636	; 0x27c
 6e4:	0101000a 	tsteq	r1, sl
 6e8:	000000e8 	andeq	r0, r0, r8, ror #1
 6ec:	002a0002 	eoreq	r0, sl, r2
 6f0:	01020000 	mrseq	r0, (UNDEF: 2)
 6f4:	000d0efb 	strdeq	r0, [sp], -fp
 6f8:	01010101 	tsteq	r1, r1, lsl #2
 6fc:	01000000 	mrseq	r0, (UNDEF: 0)
 700:	00010000 	andeq	r0, r1, r0
 704:	7774656e 	ldrbvc	r6, [r4, -lr, ror #10]!
 708:	2e6b726f 	cdpcs	2, 6, cr7, cr11, cr15, {3}
 70c:	00000063 	andeq	r0, r0, r3, rrx
 710:	69706700 	ldmdbvs	r0!, {r8, r9, sl, sp, lr}^
 714:	00682e6f 	rsbeq	r2, r8, pc, ror #28
 718:	00000000 	andeq	r0, r0, r0
 71c:	f0020500 			; <UNDEFINED> instruction: 0xf0020500
 720:	140000aa 	strne	r0, [r0], #-170	; 0xaa
 724:	d88484d7 	stmle	r4, {r0, r1, r2, r4, r6, r7, sl, pc}
 728:	84679f68 	strbthi	r9, [r7], #-3944	; 0xf68
 72c:	4c842fd7 	stcmi	15, cr2, [r4], {215}	; 0xd7
 730:	68676767 	stmdavs	r7!, {r0, r1, r2, r5, r6, r8, r9, sl, sp, lr}^
 734:	69676867 	stmdbvs	r7!, {r0, r1, r2, r5, r6, fp, sp, lr}^
 738:	67676767 	strbvs	r6, [r7, -r7, ror #14]!
 73c:	68676767 	stmdavs	r7!, {r0, r1, r2, r5, r6, r8, r9, sl, sp, lr}^
 740:	68676767 	stmdavs	r7!, {r0, r1, r2, r5, r6, r8, r9, sl, sp, lr}^
 744:	69686768 	stmdbvs	r8!, {r3, r5, r6, r8, r9, sl, sp, lr}^
 748:	68686767 	stmdavs	r8!, {r0, r1, r2, r5, r6, r8, r9, sl, sp, lr}^
 74c:	67696768 	strbvs	r6, [r9, -r8, ror #14]!
 750:	69676769 	stmdbvs	r7!, {r0, r3, r5, r6, r8, r9, sl, sp, lr}^
 754:	4c686768 	stclmi	7, cr6, [r8], #-416	; 0xfffffe60
 758:	4e4c6b84 	vmlami.f64	d22, d28, d4
 75c:	04020032 	streq	r0, [r2], #-50	; 0x32
 760:	062e0601 	strteq	r0, [lr], -r1, lsl #12
 764:	020068a1 	andeq	r6, r0, #10551296	; 0xa10000
 768:	2e060104 	adfcss	f0, f6, f4
 76c:	0200a206 	andeq	sl, r0, #1610612736	; 0x60000000
 770:	2e060104 	adfcss	f0, f6, f4
 774:	0068a106 	rsbeq	sl, r8, r6, lsl #2
 778:	06010402 	streq	r0, [r1], -r2, lsl #8
 77c:	03a1062e 			; <UNDEFINED> instruction: 0x03a1062e
 780:	684c4a09 	stmdavs	ip, {r0, r3, r9, fp, lr}^
 784:	02006b4c 	andeq	r6, r0, #76, 22	; 0x13000
 788:	2e060104 	adfcss	f0, f6, f4
 78c:	bb4ba106 	bllt	12e8bac <__bss_end__+0x12ddbec>
 790:	0402004c 	streq	r0, [r2], #-76	; 0x4c
 794:	062e0601 	strteq	r0, [lr], -r1, lsl #12
 798:	2e7503a2 	cdpcs	3, 7, cr0, cr5, cr2, {5}
 79c:	674a0f03 	strbvs	r0, [sl, -r3, lsl #30]
 7a0:	02004c67 	andeq	r4, r0, #26368	; 0x6700
 7a4:	00840104 	addeq	r0, r4, r4, lsl #2
 7a8:	83010402 	movwhi	r0, #5122	; 0x1402
 7ac:	01040200 	mrseq	r0, R12_usr
 7b0:	2f674e4b 	svccs	0x00674e4b
 7b4:	4c68322f 	sfmmi	f3, 2, [r8], #-188	; 0xffffff44
 7b8:	00324c30 	eorseq	r4, r2, r0, lsr ip
 7bc:	85010402 	strhi	r0, [r1, #-1026]	; 0x402
 7c0:	01040200 	mrseq	r0, R12_usr
 7c4:	04020083 	streq	r0, [r2], #-131	; 0x83
 7c8:	02004b01 	andeq	r4, r0, #1024	; 0x400
 7cc:	024b0104 	subeq	r0, fp, #4, 2
 7d0:	01010006 	tsteq	r1, r6

Disassembly of section .debug_str:

00000000 <.debug_str>:
   0:	73625f5f 	cmnvc	r2, #380	; 0x17c
   4:	6e655f73 	mcrvs	15, 3, r5, cr5, cr3, {3}
   8:	005f5f64 	subseq	r5, pc, r4, ror #30
   c:	5f737362 	svcpl	0x00737362
  10:	00646e65 	rsbeq	r6, r4, r5, ror #28
  14:	61747363 	cmnvs	r4, r3, ror #6
  18:	632e7472 	teqvs	lr, #1912602624	; 0x72000000
  1c:	61745f00 	cmnvs	r4, r0, lsl #30
  20:	5f656c62 	svcpl	0x00656c62
  24:	00646e65 	rsbeq	r6, r4, r5, ror #28
  28:	7473635f 	ldrbtvc	r6, [r3], #-863	; 0x35f
  2c:	00747261 	rsbseq	r7, r4, r1, ror #4
  30:	6261745f 	rsbvs	r7, r1, #1593835520	; 0x5f000000
  34:	2f00656c 	svccs	0x0000656c
  38:	72657355 	rsbvc	r7, r5, #1409286145	; 0x54000001
  3c:	69722f73 	ldmdbvs	r2!, {r0, r1, r4, r5, r6, r8, r9, sl, fp, sp}^
  40:	2f696873 	svccs	0x00696873
  44:	75636f44 	strbvc	r6, [r3, #-3908]!	; 0xf44
  48:	746e656d 	strbtvc	r6, [lr], #-1389	; 0x56d
  4c:	74532f73 	ldrbvc	r2, [r3], #-3955	; 0xf73
  50:	6f666e61 	svcvs	0x00666e61
  54:	432f6472 	teqmi	pc, #1912602624	; 0x72000000
  58:	37303153 			; <UNDEFINED> instruction: 0x37303153
  5c:	69702f45 	ldmdbvs	r0!, {r0, r2, r6, r8, r9, sl, fp, sp}^
  60:	6c6c6563 	cfstr64vs	mvdx6, [ip], #-396	; 0xfffffe74
  64:	646f632f 	strbtvs	r6, [pc], #-815	; 6c <_start-0x7f94>
  68:	5f5f0065 	svcpl	0x005f0065
  6c:	5f737362 	svcpl	0x00737362
  70:	72617473 	rsbvc	r7, r1, #1929379840	; 0x73000000
  74:	005f5f74 	subseq	r5, pc, r4, ror pc	; <UNPREDICTABLE>
  78:	20554e47 	subscs	r4, r5, r7, asr #28
  7c:	2e342043 	cdpcs	0, 3, cr2, cr4, cr3, {2}
  80:	20332e38 	eorscs	r2, r3, r8, lsr lr
  84:	2d20672d 	stccs	7, cr6, [r0, #-180]!	; 0xffffff4c
  88:	65726666 	ldrbvs	r6, [r2, #-1638]!	; 0x666
  8c:	61747365 	cmnvs	r4, r5, ror #6
  90:	6e69646e 	cdpvs	4, 6, cr6, cr9, cr14, {3}
  94:	656c0067 	strbvs	r0, [ip, #-103]!	; 0x67
  98:	6f745f64 	svcvs	0x00745f64
  9c:	656c6767 	strbvs	r6, [ip, #-1895]!	; 0x767
  a0:	736e7500 	cmnvc	lr, #0, 10
  a4:	656e6769 	strbvs	r6, [lr, #-1897]!	; 0x769
  a8:	6e692064 	cdpvs	0, 6, cr2, cr9, cr4, {3}
  ac:	656c0074 	strbvs	r0, [ip, #-116]!	; 0x74
  b0:	6e695f64 	cdpvs	15, 6, cr5, cr9, cr4, {3}
  b4:	6c007469 	cfstrsvs	mvf7, [r0], {105}	; 0x69
  b8:	632e6465 	teqvs	lr, #1694498816	; 0x65000000
  bc:	64656c00 	strbtvs	r6, [r5], #-3072	; 0xc00
  c0:	6174735f 	cmnvs	r4, pc, asr r3
  c4:	005f6574 	subseq	r6, pc, r4, ror r5	; <UNPREDICTABLE>
  c8:	5f64656c 	svcpl	0x0064656c
  cc:	6f5f7369 	svcvs	0x005f7369
  d0:	656c006e 	strbvs	r0, [ip, #-110]!	; 0x6e
  d4:	666f5f64 	strbtvs	r5, [pc], -r4, ror #30
  d8:	656c0066 	strbvs	r0, [ip, #-102]!	; 0x66
  dc:	6e6f5f64 	cdpvs	15, 6, cr5, cr15, cr4, {3}
  e0:	49504700 	ldmdbmi	r0, {r8, r9, sl, lr}^
  e4:	55465f4f 	strbpl	r5, [r6, #-3919]	; 0xf4f
  e8:	415f434e 	cmpmi	pc, lr, asr #6
  ec:	0031544c 	eorseq	r5, r1, ip, asr #8
  f0:	6f697067 	svcvs	0x00697067
  f4:	7465735f 	strbtvc	r7, [r5], #-863	; 0x35f
  f8:	6c75705f 	ldclvs	0, cr7, [r5], #-380	; 0xfffffe84
  fc:	0070756c 	rsbseq	r7, r0, ip, ror #10
 100:	6f697067 	svcvs	0x00697067
 104:	6e69705f 	mcrvs	0, 3, r7, cr9, cr15, {2}
 108:	6c61765f 	stclvs	6, cr7, [r1], #-380	; 0xfffffe84
 10c:	67006469 	strvs	r6, [r0, -r9, ror #8]
 110:	5f6f6970 	svcpl	0x006f6970
 114:	5f6e6970 	svcpl	0x006e6970
 118:	655f6f74 	ldrbvs	r6, [pc, #-3956]	; fffff1ac <__bss_end__+0xffff41ec>
 11c:	746e6576 	strbtvc	r6, [lr], #-1398	; 0x576
 120:	66666f5f 	uqsaxvs	r6, r6, pc	; <UNPREDICTABLE>
 124:	00746573 	rsbseq	r6, r4, r3, ror r5
 128:	6f697067 	svcvs	0x00697067
 12c:	6e69705f 	mcrvs	0, 3, r7, cr9, cr15, {2}
 130:	5f6f745f 	svcpl	0x006f745f
 134:	69736972 	ldmdbvs	r3!, {r1, r4, r5, r6, r8, fp, sp, lr}^
 138:	725f676e 	subsvc	r6, pc, #28835840	; 0x1b80000
 13c:	73696765 	cmnvc	r9, #26476544	; 0x1940000
 140:	00726574 	rsbseq	r6, r2, r4, ror r5
 144:	6f697067 	svcvs	0x00697067
 148:	6e69705f 	mcrvs	0, 3, r7, cr9, cr15, {2}
 14c:	6972775f 	ldmdbvs	r2!, {r0, r1, r2, r3, r4, r6, r8, r9, sl, ip, sp, lr}^
 150:	47006574 	smlsdxmi	r0, r4, r5, r6
 154:	5f4f4950 	svcpl	0x004f4950
 158:	434e5546 	movtmi	r5, #58694	; 0xe546
 15c:	54554f5f 	ldrbpl	r4, [r5], #-3935	; 0xf5f
 160:	00545550 	subseq	r5, r4, r0, asr r5
 164:	6f697067 	svcvs	0x00697067
 168:	7465735f 	strbtvc	r7, [r5], #-863	; 0x35f
 16c:	74756f5f 	ldrbtvc	r6, [r5], #-3935	; 0xf5f
 170:	00747570 	rsbseq	r7, r4, r0, ror r5
 174:	6f697067 	svcvs	0x00697067
 178:	6e69705f 	mcrvs	0, 3, r7, cr9, cr15, {2}
 17c:	5f6f745f 	svcpl	0x006f745f
 180:	636e7566 	cmnvs	lr, #427819008	; 0x19800000
 184:	6e6f6974 	mcrvs	9, 3, r6, cr15, cr4, {3}
 188:	6765725f 			; <UNDEFINED> instruction: 0x6765725f
 18c:	65747369 	ldrbvs	r7, [r4, #-873]!	; 0x369
 190:	6f6d0072 	svcvs	0x006d0072
 194:	47006564 	strmi	r6, [r0, -r4, ror #10]
 198:	5f4f4950 	svcpl	0x004f4950
 19c:	334e4950 	movtcc	r4, #59728	; 0xe950
 1a0:	50470030 	subpl	r0, r7, r0, lsr r0
 1a4:	505f4f49 	subspl	r4, pc, r9, asr #30
 1a8:	31334e49 	teqcc	r3, r9, asr #28
 1ac:	49504700 	ldmdbmi	r0, {r8, r9, sl, lr}^
 1b0:	49505f4f 	ldmdbmi	r0, {r0, r1, r2, r3, r6, r8, r9, sl, fp, ip, lr}^
 1b4:	0032334e 	eorseq	r3, r2, lr, asr #6
 1b8:	4f495047 	svcmi	0x00495047
 1bc:	4e49505f 	mcrmi	0, 2, r5, cr9, cr15, {2}
 1c0:	47003333 	smladxmi	r0, r3, r3, r3
 1c4:	5f4f4950 	svcpl	0x004f4950
 1c8:	334e4950 	movtcc	r4, #59728	; 0xe950
 1cc:	50470034 	subpl	r0, r7, r4, lsr r0
 1d0:	505f4f49 	subspl	r4, pc, r9, asr #30
 1d4:	35334e49 	ldrcc	r4, [r3, #-3657]!	; 0xe49
 1d8:	49504700 	ldmdbmi	r0, {r8, r9, sl, lr}^
 1dc:	49505f4f 	ldmdbmi	r0, {r0, r1, r2, r3, r6, r8, r9, sl, fp, ip, lr}^
 1e0:	0036334e 	eorseq	r3, r6, lr, asr #6
 1e4:	4f495047 	svcmi	0x00495047
 1e8:	4e49505f 	mcrmi	0, 2, r5, cr9, cr15, {2}
 1ec:	47003733 	smladxmi	r0, r3, r7, r3
 1f0:	5f4f4950 	svcpl	0x004f4950
 1f4:	334e4950 	movtcc	r4, #59728	; 0xe950
 1f8:	50470038 	subpl	r0, r7, r8, lsr r0
 1fc:	505f4f49 	subspl	r4, pc, r9, asr #30
 200:	39334e49 	ldmdbcc	r3!, {r0, r3, r6, r9, sl, fp, lr}
 204:	49504700 	ldmdbmi	r0, {r8, r9, sl, lr}^
 208:	55465f4f 	strbpl	r5, [r6, #-3919]	; 0xf4f
 20c:	415f434e 	cmpmi	pc, lr, asr #6
 210:	0034544c 	eorseq	r5, r4, ip, asr #8
 214:	4f495047 	svcmi	0x00495047
 218:	4e55465f 	mrcmi	6, 2, r4, cr5, cr15, {2}
 21c:	4c415f43 	mcrrmi	15, 4, r5, r1, cr3
 220:	67003554 	smlsdvs	r0, r4, r5, r3
 224:	5f6f6970 	svcpl	0x006f6970
 228:	5f6e6970 	svcpl	0x006e6970
 22c:	735f6f74 	cmpvc	pc, #116, 30	; 0x1d0
 230:	725f7465 	subsvc	r7, pc, #1694498816	; 0x65000000
 234:	73696765 	cmnvc	r9, #26476544	; 0x1940000
 238:	00726574 	rsbseq	r6, r2, r4, ror r5
 23c:	6f697067 	svcvs	0x00697067
 240:	6e69705f 	mcrvs	0, 3, r7, cr9, cr15, {2}
 244:	5f6f745f 	svcpl	0x006f745f
 248:	636e7566 	cmnvs	lr, #427819008	; 0x19800000
 24c:	6e6f6974 	mcrvs	9, 3, r6, cr15, cr4, {3}
 250:	66666f5f 	uqsaxvs	r6, r6, pc	; <UNPREDICTABLE>
 254:	00746573 	rsbseq	r6, r4, r3, ror r5
 258:	6f697067 	svcvs	0x00697067
 25c:	6568635f 	strbvs	r6, [r8, #-863]!	; 0x35f
 260:	615f6b63 	cmpvs	pc, r3, ror #22
 264:	635f646e 	cmpvs	pc, #1845493760	; 0x6e000000
 268:	7261656c 	rsbvc	r6, r1, #108, 10	; 0x1b000000
 26c:	6576655f 	ldrbvs	r6, [r6, #-1375]!	; 0x55f
 270:	6700746e 	strvs	r7, [r0, -lr, ror #8]
 274:	5f6f6970 	svcpl	0x006f6970
 278:	5f6e6970 	svcpl	0x006e6970
 27c:	64616572 	strbtvs	r6, [r1], #-1394	; 0x572
 280:	49504700 	ldmdbmi	r0, {r8, r9, sl, lr}^
 284:	49505f4f 	ldmdbmi	r0, {r0, r1, r2, r3, r6, r8, r9, sl, fp, ip, lr}^
 288:	414c5f4e 	cmpmi	ip, lr, asr #30
 28c:	67005453 	smlsdvs	r0, r3, r4, r5
 290:	5f6f6970 	svcpl	0x006f6970
 294:	5f6e6970 	svcpl	0x006e6970
 298:	755f6f74 	ldrbvc	r6, [pc, #-3956]	; fffff32c <__bss_end__+0xffff436c>
 29c:	6f6c6364 	svcvs	0x006c6364
 2a0:	725f6b63 	subsvc	r6, pc, #101376	; 0x18c00
 2a4:	73696765 	cmnvc	r9, #26476544	; 0x1940000
 2a8:	00726574 	rsbseq	r6, r2, r4, ror r5
 2ac:	6f697067 	svcvs	0x00697067
 2b0:	6568635f 	strbvs	r6, [r8, #-863]!	; 0x35f
 2b4:	655f6b63 	ldrbvs	r6, [pc, #-2915]	; fffff759 <__bss_end__+0xffff4799>
 2b8:	746e6576 	strbtvc	r6, [lr], #-1398	; 0x576
 2bc:	69706700 	ldmdbvs	r0!, {r8, r9, sl, sp, lr}^
 2c0:	69705f6f 	ldmdbvs	r0!, {r0, r1, r2, r3, r5, r6, r8, r9, sl, fp, ip, lr}^
 2c4:	6f745f6e 	svcvs	0x00745f6e
 2c8:	706e695f 	rsbvc	r6, lr, pc, asr r9
 2cc:	6f5f7475 	svcvs	0x005f7475
 2d0:	65736666 	ldrbvs	r6, [r3, #-1638]!	; 0x666
 2d4:	70670074 	rsbvc	r0, r7, r4, ror r0
 2d8:	735f6f69 	cmpvc	pc, #420	; 0x1a4
 2dc:	705f7465 	subsvc	r7, pc, r5, ror #8
 2e0:	646c6c75 	strbtvs	r6, [ip], #-3189	; 0xc75
 2e4:	006e776f 	rsbeq	r7, lr, pc, ror #14
 2e8:	6f697067 	svcvs	0x00697067
 2ec:	6e69705f 	mcrvs	0, 3, r7, cr9, cr15, {2}
 2f0:	5f6f745f 	svcpl	0x006f745f
 2f4:	6c636475 	cfstrdvs	mvd6, [r3], #-468	; 0xfffffe2c
 2f8:	5f6b636f 	svcpl	0x006b636f
 2fc:	7366666f 	cmnvc	r6, #116391936	; 0x6f00000
 300:	6d007465 	cfstrsvs	mvf7, [r0, #-404]	; 0xfffffe6c
 304:	006b7361 	rsbeq	r7, fp, r1, ror #6
 308:	4d6e6970 	stclmi	9, cr6, [lr, #-448]!	; 0xfffffe40
 30c:	0065646f 	rsbeq	r6, r5, pc, ror #8
 310:	6f697067 	svcvs	0x00697067
 314:	6e69705f 	mcrvs	0, 3, r7, cr9, cr15, {2}
 318:	5f6f745f 	svcpl	0x006f745f
 31c:	5f746573 	svcpl	0x00746573
 320:	7366666f 	cmnvc	r6, #116391936	; 0x6f00000
 324:	67007465 	strvs	r7, [r0, -r5, ror #8]
 328:	5f6f6970 	svcpl	0x006f6970
 32c:	5f6e6970 	svcpl	0x006e6970
 330:	655f6f74 	ldrbvs	r6, [pc, #-3956]	; fffff3c4 <__bss_end__+0xffff4404>
 334:	746e6576 	strbtvc	r6, [lr], #-1398	; 0x576
 338:	6765725f 			; <UNDEFINED> instruction: 0x6765725f
 33c:	65747369 	ldrbvs	r7, [r4, #-873]!	; 0x369
 340:	73660072 	cmnvc	r6, #114	; 0x72
 344:	664f6c65 	strbvs	r6, [pc], -r5, ror #24
 348:	74657366 	strbtvc	r7, [r5], #-870	; 0x366
 34c:	6c617600 	stclvs	6, cr7, [r1], #-0
 350:	67006575 	smlsdxvs	r0, r5, r5, r6
 354:	5f6f6970 	svcpl	0x006f6970
 358:	5f6e6970 	svcpl	0x006e6970
 35c:	665f6f74 	usub16vs	r6, pc, r4	; <UNPREDICTABLE>
 360:	696c6c61 	stmdbvs	ip!, {r0, r5, r6, sl, fp, sp, lr}^
 364:	6f5f676e 	svcvs	0x005f676e
 368:	65736666 	ldrbvs	r6, [r3, #-1638]!	; 0x666
 36c:	73660074 	cmnvc	r6, #116	; 0x74
 370:	61526c65 	cmpvs	r2, r5, ror #24
 374:	0065676e 	rsbeq	r6, r5, lr, ror #14
 378:	4f495047 	svcmi	0x00495047
 37c:	4e49505f 	mcrmi	0, 2, r5, cr9, cr15, {2}
 380:	47003034 	smladxmi	r0, r4, r0, r3
 384:	5f4f4950 	svcpl	0x004f4950
 388:	344e4950 	strbcc	r4, [lr], #-2384	; 0x950
 38c:	50470031 	subpl	r0, r7, r1, lsr r0
 390:	505f4f49 	subspl	r4, pc, r9, asr #30
 394:	32344e49 	eorscc	r4, r4, #1168	; 0x490
 398:	49504700 	ldmdbmi	r0, {r8, r9, sl, lr}^
 39c:	49505f4f 	ldmdbmi	r0, {r0, r1, r2, r3, r6, r8, r9, sl, fp, ip, lr}^
 3a0:	0033344e 	eorseq	r3, r3, lr, asr #8
 3a4:	4f495047 	svcmi	0x00495047
 3a8:	4e49505f 	mcrmi	0, 2, r5, cr9, cr15, {2}
 3ac:	47003434 	smladxmi	r0, r4, r4, r3
 3b0:	5f4f4950 	svcpl	0x004f4950
 3b4:	344e4950 	strbcc	r4, [lr], #-2384	; 0x950
 3b8:	50470035 	subpl	r0, r7, r5, lsr r0
 3bc:	505f4f49 	subspl	r4, pc, r9, asr #30
 3c0:	36344e49 	ldrtcc	r4, [r4], -r9, asr #28
 3c4:	49504700 	ldmdbmi	r0, {r8, r9, sl, lr}^
 3c8:	49505f4f 	ldmdbmi	r0, {r0, r1, r2, r3, r6, r8, r9, sl, fp, ip, lr}^
 3cc:	0037344e 	eorseq	r3, r7, lr, asr #8
 3d0:	4f495047 	svcmi	0x00495047
 3d4:	4e49505f 	mcrmi	0, 2, r5, cr9, cr15, {2}
 3d8:	47003834 	smladxmi	r0, r4, r8, r3
 3dc:	5f4f4950 	svcpl	0x004f4950
 3e0:	344e4950 	strbcc	r4, [lr], #-2384	; 0x950
 3e4:	50470039 	subpl	r0, r7, r9, lsr r0
 3e8:	465f4f49 	ldrbmi	r4, [pc], -r9, asr #30
 3ec:	5f434e55 	svcpl	0x00434e55
 3f0:	33544c41 	cmpcc	r4, #16640	; 0x4100
 3f4:	69706700 	ldmdbvs	r0!, {r8, r9, sl, sp, lr}^
 3f8:	75665f6f 	strbvc	r5, [r6, #-3951]!	; 0xf6f
 3fc:	6974636e 	ldmdbvs	r4!, {r1, r2, r3, r5, r6, r8, r9, sp, lr}^
 400:	765f6e6f 	ldrbvc	r6, [pc], -pc, ror #28
 404:	64696c61 	strbtvs	r6, [r9], #-3169	; 0xc61
 408:	49504700 	ldmdbmi	r0, {r8, r9, sl, lr}^
 40c:	55465f4f 	strbpl	r5, [r6, #-3919]	; 0xf4f
 410:	495f434e 	ldmdbmi	pc, {r1, r2, r3, r6, r8, r9, lr}^	; <UNPREDICTABLE>
 414:	5455504e 	ldrbpl	r5, [r5], #-78	; 0x4e
 418:	6e697000 	cdpvs	0, 6, cr7, cr9, cr0, {0}
 41c:	6c75705f 	ldclvs	0, cr7, [r5], #-380	; 0xfffffe84
 420:	756f006c 	strbvc	r0, [pc, #-108]!	; 3bc <_start-0x7c44>
 424:	66664f74 	uqsub16vs	r4, r6, r4
 428:	00746573 	rsbseq	r6, r4, r3, ror r5
 42c:	4f495047 	svcmi	0x00495047
 430:	4e55465f 	mrcmi	6, 2, r4, cr5, cr15, {2}
 434:	4e495f43 	cdpmi	15, 4, cr5, cr9, cr3, {2}
 438:	494c4156 	stmdbmi	ip, {r1, r2, r4, r6, r8, lr}^
 43c:	70670044 	rsbvc	r0, r7, r4, asr #32
 440:	735f6f69 	cmpvc	pc, #420	; 0x1a4
 444:	665f7465 	ldrbvs	r7, [pc], -r5, ror #8
 448:	74636e75 	strbtvc	r6, [r3], #-3701	; 0xe75
 44c:	006e6f69 	rsbeq	r6, lr, r9, ror #30
 450:	6f697067 	svcvs	0x00697067
 454:	7465645f 	strbtvc	r6, [r5], #-1119	; 0x45f
 458:	5f746365 	svcpl	0x00746365
 45c:	6c6c6166 	stfvse	f6, [ip], #-408	; 0xfffffe68
 460:	5f676e69 	svcpl	0x00676e69
 464:	65676465 	strbvs	r6, [r7, #-1125]!	; 0x465
 468:	69706700 	ldmdbvs	r0!, {r8, r9, sl, sp, lr}^
 46c:	69705f6f 	ldmdbvs	r0!, {r0, r1, r2, r3, r5, r6, r8, r9, sl, fp, ip, lr}^
 470:	6f745f6e 	svcvs	0x00745f6e
 474:	656c635f 	strbvs	r6, [ip, #-863]!	; 0x35f
 478:	725f7261 	subsvc	r7, pc, #268435462	; 0x10000006
 47c:	73696765 	cmnvc	r9, #26476544	; 0x1940000
 480:	00726574 	rsbseq	r6, r2, r4, ror r5
 484:	5274756f 	rsbspl	r7, r4, #465567744	; 0x1bc00000
 488:	65676e61 	strbvs	r6, [r7, #-3681]!	; 0xe61
 48c:	49504700 	ldmdbmi	r0, {r8, r9, sl, lr}^
 490:	49505f4f 	ldmdbmi	r0, {r0, r1, r2, r3, r6, r8, r9, sl, fp, ip, lr}^
 494:	0030314e 	eorseq	r3, r0, lr, asr #2
 498:	4f495047 	svcmi	0x00495047
 49c:	4e49505f 	mcrmi	0, 2, r5, cr9, cr15, {2}
 4a0:	47003131 	smladxmi	r0, r1, r1, r3
 4a4:	5f4f4950 	svcpl	0x004f4950
 4a8:	314e4950 	cmpcc	lr, r0, asr r9
 4ac:	50470032 	subpl	r0, r7, r2, lsr r0
 4b0:	505f4f49 	subspl	r4, pc, r9, asr #30
 4b4:	33314e49 	teqcc	r1, #1168	; 0x490
 4b8:	49504700 	ldmdbmi	r0, {r8, r9, sl, lr}^
 4bc:	49505f4f 	ldmdbmi	r0, {r0, r1, r2, r3, r6, r8, r9, sl, fp, ip, lr}^
 4c0:	0034314e 	eorseq	r3, r4, lr, asr #2
 4c4:	4f495047 	svcmi	0x00495047
 4c8:	4e49505f 	mcrmi	0, 2, r5, cr9, cr15, {2}
 4cc:	47003531 	smladxmi	r0, r1, r5, r3
 4d0:	5f4f4950 	svcpl	0x004f4950
 4d4:	314e4950 	cmpcc	lr, r0, asr r9
 4d8:	50470036 	subpl	r0, r7, r6, lsr r0
 4dc:	505f4f49 	subspl	r4, pc, r9, asr #30
 4e0:	37314e49 	ldrcc	r4, [r1, -r9, asr #28]!
 4e4:	49504700 	ldmdbmi	r0, {r8, r9, sl, lr}^
 4e8:	49505f4f 	ldmdbmi	r0, {r0, r1, r2, r3, r6, r8, r9, sl, fp, ip, lr}^
 4ec:	0038314e 	eorseq	r3, r8, lr, asr #2
 4f0:	4f495047 	svcmi	0x00495047
 4f4:	4e49505f 	mcrmi	0, 2, r5, cr9, cr15, {2}
 4f8:	67003931 	smladxvs	r0, r1, r9, r3
 4fc:	5f6f6970 	svcpl	0x006f6970
 500:	5f6e6970 	svcpl	0x006e6970
 504:	725f6f74 	subsvc	r6, pc, #116, 30	; 0x1d0
 508:	6e697369 	cdpvs	3, 6, cr7, cr9, cr9, {3}
 50c:	666f5f67 	strbtvs	r5, [pc], -r7, ror #30
 510:	74657366 	strbtvc	r7, [r5], #-870	; 0x366
 514:	69706700 	ldmdbvs	r0!, {r8, r9, sl, sp, lr}^
 518:	69705f6f 	ldmdbvs	r0!, {r0, r1, r2, r3, r5, r6, r8, r9, sl, fp, ip, lr}^
 51c:	6f745f6e 	svcvs	0x00745f6e
 520:	7469625f 	strbtvc	r6, [r9], #-607	; 0x25f
 524:	66666f5f 	uqsaxvs	r6, r6, pc	; <UNPREDICTABLE>
 528:	00746573 	rsbseq	r6, r4, r3, ror r5
 52c:	4174756f 	cmnmi	r4, pc, ror #10
 530:	00726464 	rsbseq	r6, r2, r4, ror #8
 534:	4f495047 	svcmi	0x00495047
 538:	4e49505f 	mcrmi	0, 2, r5, cr9, cr15, {2}
 53c:	67003532 	smladxvs	r0, r2, r5, r3
 540:	5f6f6970 	svcpl	0x006f6970
 544:	65746564 	ldrbvs	r6, [r4, #-1380]!	; 0x564
 548:	725f7463 	subsvc	r7, pc, #1660944384	; 0x63000000
 54c:	6e697369 	cdpvs	3, 6, cr7, cr9, cr9, {3}
 550:	64655f67 	strbtvs	r5, [r5], #-3943	; 0xf67
 554:	47006567 	strmi	r6, [r0, -r7, ror #10]
 558:	5f4f4950 	svcpl	0x004f4950
 55c:	354e4950 	strbcc	r4, [lr, #-2384]	; 0x950
 560:	50470030 	subpl	r0, r7, r0, lsr r0
 564:	505f4f49 	subspl	r4, pc, r9, asr #30
 568:	31354e49 	teqcc	r5, r9, asr #28
 56c:	49504700 	ldmdbmi	r0, {r8, r9, sl, lr}^
 570:	49505f4f 	ldmdbmi	r0, {r0, r1, r2, r3, r6, r8, r9, sl, fp, ip, lr}^
 574:	0032354e 	eorseq	r3, r2, lr, asr #10
 578:	4f495047 	svcmi	0x00495047
 57c:	4e49505f 	mcrmi	0, 2, r5, cr9, cr15, {2}
 580:	47003335 	smladxmi	r0, r5, r3, r3
 584:	5f4f4950 	svcpl	0x004f4950
 588:	354e4950 	strbcc	r4, [lr, #-2384]	; 0x950
 58c:	50470034 	subpl	r0, r7, r4, lsr r0
 590:	505f4f49 	subspl	r4, pc, r9, asr #30
 594:	465f4e49 	ldrbmi	r4, [pc], -r9, asr #28
 598:	54535249 	ldrbpl	r5, [r3], #-585	; 0x249
 59c:	49504700 	ldmdbmi	r0, {r8, r9, sl, lr}^
 5a0:	55465f4f 	strbpl	r5, [r6, #-3919]	; 0xf4f
 5a4:	415f434e 	cmpmi	pc, lr, asr #6
 5a8:	0032544c 	eorseq	r5, r2, ip, asr #8
 5ac:	6f697067 	svcvs	0x00697067
 5b0:	6e69705f 	mcrvs	0, 3, r7, cr9, cr15, {2}
 5b4:	5f6f745f 	svcpl	0x006f745f
 5b8:	61656c63 	cmnvs	r5, r3, ror #24
 5bc:	666f5f72 	uqsub16vs	r5, pc, r2	; <UNPREDICTABLE>
 5c0:	74657366 	strbtvc	r7, [r5], #-870	; 0x366
 5c4:	69706700 	ldmdbvs	r0!, {r8, r9, sl, sp, lr}^
 5c8:	65735f6f 	ldrbvs	r5, [r3, #-3951]!	; 0xf6f
 5cc:	6e695f74 	mcrvs	15, 3, r5, cr9, cr4, {3}
 5d0:	00747570 	rsbseq	r7, r4, r0, ror r5
 5d4:	4f495047 	svcmi	0x00495047
 5d8:	4e49505f 	mcrmi	0, 2, r5, cr9, cr15, {2}
 5dc:	50470030 	subpl	r0, r7, r0, lsr r0
 5e0:	505f4f49 	subspl	r4, pc, r9, asr #30
 5e4:	00314e49 	eorseq	r4, r1, r9, asr #28
 5e8:	4f495047 	svcmi	0x00495047
 5ec:	4e49505f 	mcrmi	0, 2, r5, cr9, cr15, {2}
 5f0:	50470032 	subpl	r0, r7, r2, lsr r0
 5f4:	505f4f49 	subspl	r4, pc, r9, asr #30
 5f8:	00334e49 	eorseq	r4, r3, r9, asr #28
 5fc:	4f495047 	svcmi	0x00495047
 600:	4e49505f 	mcrmi	0, 2, r5, cr9, cr15, {2}
 604:	50470034 	subpl	r0, r7, r4, lsr r0
 608:	505f4f49 	subspl	r4, pc, r9, asr #30
 60c:	00354e49 	eorseq	r4, r5, r9, asr #28
 610:	4f495047 	svcmi	0x00495047
 614:	4e49505f 	mcrmi	0, 2, r5, cr9, cr15, {2}
 618:	50470036 	subpl	r0, r7, r6, lsr r0
 61c:	505f4f49 	subspl	r4, pc, r9, asr #30
 620:	00374e49 	eorseq	r4, r7, r9, asr #28
 624:	4f495047 	svcmi	0x00495047
 628:	4e49505f 	mcrmi	0, 2, r5, cr9, cr15, {2}
 62c:	50470038 	subpl	r0, r7, r8, lsr r0
 630:	505f4f49 	subspl	r4, pc, r9, asr #30
 634:	00394e49 	eorseq	r4, r9, r9, asr #28
 638:	6f697067 	svcvs	0x00697067
 63c:	5f73695f 	svcpl	0x0073695f
 640:	7074756f 	rsbsvc	r7, r4, pc, ror #10
 644:	67007475 	smlsdxvs	r0, r5, r4, r7
 648:	5f6f6970 	svcpl	0x006f6970
 64c:	695f7369 	ldmdbvs	pc, {r0, r3, r5, r6, r8, r9, ip, sp, lr}^	; <UNPREDICTABLE>
 650:	7475706e 	ldrbtvc	r7, [r5], #-110	; 0x6e
 654:	49504700 	ldmdbmi	r0, {r8, r9, sl, lr}^
 658:	49505f4f 	ldmdbmi	r0, {r0, r1, r2, r3, r6, r8, r9, sl, fp, ip, lr}^
 65c:	0030324e 	eorseq	r3, r0, lr, asr #4
 660:	4f495047 	svcmi	0x00495047
 664:	4e49505f 	mcrmi	0, 2, r5, cr9, cr15, {2}
 668:	47003132 	smladxmi	r0, r2, r1, r3
 66c:	5f4f4950 	svcpl	0x004f4950
 670:	324e4950 	subcc	r4, lr, #80, 18	; 0x140000
 674:	50470032 	subpl	r0, r7, r2, lsr r0
 678:	505f4f49 	subspl	r4, pc, r9, asr #30
 67c:	33324e49 	teqcc	r2, #1168	; 0x490
 680:	49504700 	ldmdbmi	r0, {r8, r9, sl, lr}^
 684:	49505f4f 	ldmdbmi	r0, {r0, r1, r2, r3, r6, r8, r9, sl, fp, ip, lr}^
 688:	0034324e 	eorseq	r3, r4, lr, asr #4
 68c:	6f697067 	svcvs	0x00697067
 690:	4700632e 	strmi	r6, [r0, -lr, lsr #6]
 694:	5f4f4950 	svcpl	0x004f4950
 698:	324e4950 	subcc	r4, lr, #80, 18	; 0x140000
 69c:	50470036 	subpl	r0, r7, r6, lsr r0
 6a0:	505f4f49 	subspl	r4, pc, r9, asr #30
 6a4:	37324e49 	ldrcc	r4, [r2, -r9, asr #28]!
 6a8:	49504700 	ldmdbmi	r0, {r8, r9, sl, lr}^
 6ac:	49505f4f 	ldmdbmi	r0, {r0, r1, r2, r3, r6, r8, r9, sl, fp, ip, lr}^
 6b0:	0038324e 	eorseq	r3, r8, lr, asr #4
 6b4:	4f495047 	svcmi	0x00495047
 6b8:	4e49505f 	mcrmi	0, 2, r5, cr9, cr15, {2}
 6bc:	67003932 	smladxvs	r0, r2, r9, r3
 6c0:	5f6f6970 	svcpl	0x006f6970
 6c4:	5f746567 	svcpl	0x00746567
 6c8:	636e7566 	cmnvs	lr, #427819008	; 0x19800000
 6cc:	6e6f6974 	mcrvs	9, 3, r6, cr15, cr4, {3}
 6d0:	69706700 	ldmdbvs	r0!, {r8, r9, sl, sp, lr}^
 6d4:	69705f6f 	ldmdbvs	r0!, {r0, r1, r2, r3, r5, r6, r8, r9, sl, fp, ip, lr}^
 6d8:	6f745f6e 	svcvs	0x00745f6e
 6dc:	706e695f 	rsbvc	r6, lr, pc, asr r9
 6e0:	725f7475 	subsvc	r7, pc, #1962934272	; 0x75000000
 6e4:	73696765 	cmnvc	r9, #26476544	; 0x1940000
 6e8:	00726574 	rsbseq	r6, r2, r4, ror r5
 6ec:	6c6f6f62 	stclvs	15, cr6, [pc], #-392	; 56c <_start-0x7a94>
 6f0:	006e6165 	rsbeq	r6, lr, r5, ror #2
 6f4:	6f697067 	svcvs	0x00697067
 6f8:	6e69705f 	mcrvs	0, 3, r7, cr9, cr15, {2}
 6fc:	5f6f745f 	svcpl	0x006f745f
 700:	6c6c6166 	stfvse	f6, [ip], #-408	; 0xfffffe68
 704:	5f676e69 	svcpl	0x00676e69
 708:	69676572 	stmdbvs	r7!, {r1, r4, r5, r6, r8, sl, sp, lr}^
 70c:	72657473 	rsbvc	r7, r5, #1929379840	; 0x73000000
 710:	49504700 	ldmdbmi	r0, {r8, r9, sl, lr}^
 714:	55465f4f 	strbpl	r5, [r6, #-3919]	; 0xf4f
 718:	415f434e 	cmpmi	pc, lr, asr #6
 71c:	0030544c 	eorseq	r5, r0, ip, asr #8
 720:	576e6970 			; <UNDEFINED> instruction: 0x576e6970
 724:	65746972 	ldrbvs	r6, [r4, #-2418]!	; 0x972
 728:	6f747300 	svcvs	0x00747300
 72c:	69740070 	ldmdbvs	r4!, {r4, r5, r6}^
 730:	5f72656d 	svcpl	0x0072656d
 734:	74696177 	strbtvc	r6, [r9], #-375	; 0x177
 738:	746e755f 	strbtvc	r7, [lr], #-1375	; 0x55f
 73c:	74006c69 	strvc	r6, [r0], #-3177	; 0xc69
 740:	72656d69 	rsbvc	r6, r5, #6720	; 0x1a40
 744:	696e695f 	stmdbvs	lr!, {r0, r1, r2, r3, r4, r6, r8, fp, sp, lr}^
 748:	69740074 	ldmdbvs	r4!, {r2, r4, r5, r6}^
 74c:	5f72656d 	svcpl	0x0072656d
 750:	74696177 	strbtvc	r6, [r9], #-375	; 0x177
 754:	746e695f 	strbtvc	r6, [lr], #-2399	; 0x95f
 758:	61767265 	cmnvs	r6, r5, ror #4
 75c:	6572006c 	ldrbvs	r0, [r2, #-108]!	; 0x6c
 760:	6e69616d 	powvsez	f6, f1, #5.0
 764:	00676e69 	rsbeq	r6, r7, r9, ror #28
 768:	656d6974 	strbvs	r6, [sp, #-2420]!	; 0x974
 76c:	00632e72 	rsbeq	r2, r3, r2, ror lr
 770:	7263696d 	rsbvc	r6, r3, #1785856	; 0x1b4000
 774:	6365736f 	cmnvs	r5, #-1140850687	; 0xbc000001
 778:	73646e6f 	cmnvc	r4, #1776	; 0x6f0
 77c:	6d697400 	cfstrdvs	mvd7, [r9, #-0]
 780:	775f7265 	ldrbvc	r7, [pc, -r5, ror #4]
 784:	5f746961 	svcpl	0x00746961
 788:	00726f66 	rsbseq	r6, r2, r6, ror #30
 78c:	656d6974 	strbvs	r6, [sp, #-2420]!	; 0x974
 790:	65675f72 	strbvs	r5, [r7, #-3954]!	; 0xf72
 794:	6d697474 	cfstrdvs	mvd7, [r9, #-464]!	; 0xfffffe30
 798:	616c0065 	cmnvs	ip, r5, rrx
 79c:	665f7473 			; <UNDEFINED> instruction: 0x665f7473
 7a0:	6e697269 	cdpvs	2, 6, cr7, cr9, cr9, {3}
 7a4:	63005f67 	movwvs	r5, #3943	; 0xf67
 7a8:	65727275 	ldrbvs	r7, [r2, #-629]!	; 0x275
 7ac:	6800746e 	stmdavs	r0, {r1, r2, r3, r5, r6, sl, ip, sp, lr}
 7b0:	665f7361 	ldrbvs	r7, [pc], -r1, ror #6
 7b4:	64657269 	strbtvs	r7, [r5], #-617	; 0x269
 7b8:	7973005f 	ldmdbvc	r3!, {r0, r1, r2, r3, r4, r6}^
 7bc:	6d657473 	cfstrdvs	mvd7, [r5, #-460]!	; 0xfffffe34
 7c0:	616e655f 	cmnvs	lr, pc, asr r5
 7c4:	5f656c62 	svcpl	0x00656c62
 7c8:	6e617262 	cdpvs	2, 6, cr7, cr1, cr2, {3}
 7cc:	705f6863 	subsvc	r6, pc, r3, ror #16
 7d0:	69646572 	stmdbvs	r4!, {r1, r4, r5, r6, r8, sl, sp, lr}^
 7d4:	6f697463 	svcvs	0x00697463
 7d8:	7973006e 	ldmdbvc	r3!, {r1, r2, r3, r5, r6}^
 7dc:	6d657473 	cfstrdvs	mvd7, [r5, #-460]!	; 0xfffffe34
 7e0:	616e655f 	cmnvs	lr, pc, asr r5
 7e4:	5f656c62 	svcpl	0x00656c62
 7e8:	68636163 	stmdavs	r3!, {r0, r1, r5, r6, r8, sp, lr}^
 7ec:	73007365 	movwvc	r7, #869	; 0x365
 7f0:	65747379 	ldrbvs	r7, [r4, #-889]!	; 0x379
 7f4:	656d5f6d 	strbvs	r5, [sp, #-3949]!	; 0xf6d
 7f8:	79726f6d 	ldmdbvc	r2!, {r0, r2, r3, r5, r6, r8, r9, sl, fp, sp, lr}^
 7fc:	6165725f 	cmnvs	r5, pc, asr r2
 800:	61625f64 	cmnvs	r2, r4, ror #30
 804:	65697272 	strbvs	r7, [r9, #-626]!	; 0x272
 808:	79730072 	ldmdbvc	r3!, {r1, r4, r5, r6}^
 80c:	6d657473 	cfstrdvs	mvd7, [r5, #-460]!	; 0xfffffe34
 810:	6d656d5f 	stclvs	13, cr6, [r5, #-380]!	; 0xfffffe84
 814:	5f79726f 	svcpl	0x0079726f
 818:	6c6c7566 	cfstr64vs	mvdx7, [ip], #-408	; 0xfffffe68
 81c:	7261625f 	rsbvc	r6, r1, #-268435451	; 0xf0000005
 820:	72656972 	rsbvc	r6, r5, #1867776	; 0x1c8000
 824:	73797300 	cmnvc	r9, #0, 6
 828:	5f6d6574 	svcpl	0x006d6574
 82c:	6f6d656d 	svcvs	0x006d656d
 830:	775f7972 			; <UNDEFINED> instruction: 0x775f7972
 834:	65746972 	ldrbvs	r6, [r4, #-2418]!	; 0x972
 838:	7261625f 	rsbvc	r6, r1, #-268435451	; 0xf0000005
 83c:	72656972 	rsbvc	r6, r5, #1867776	; 0x1c8000
 840:	73797300 	cmnvc	r9, #0, 6
 844:	5f6d6574 	svcpl	0x006d6574
 848:	61736964 	cmnvs	r3, r4, ror #18
 84c:	5f656c62 	svcpl	0x00656c62
 850:	65746e69 	ldrbvs	r6, [r4, #-3689]!	; 0xe69
 854:	70757272 	rsbsvc	r7, r5, r2, ror r2
 858:	73007374 	movwvc	r7, #884	; 0x374
 85c:	65747379 	ldrbvs	r7, [r4, #-889]!	; 0x379
 860:	6e655f6d 	cdpvs	15, 6, cr5, cr5, cr13, {3}
 864:	656c6261 	strbvs	r6, [ip, #-609]!	; 0x261
 868:	746e695f 	strbtvc	r6, [lr], #-2399	; 0x95f
 86c:	75727265 	ldrbvc	r7, [r2, #-613]!	; 0x265
 870:	00737470 	rsbseq	r7, r3, r0, ror r4
 874:	74737973 	ldrbtvc	r7, [r3], #-2419	; 0x973
 878:	632e6d65 	teqvs	lr, #6464	; 0x1940
 87c:	72706700 	rsbsvc	r6, r0, #0, 14
 880:	632e666f 	teqvs	lr, #116391936	; 0x6f00000
 884:	61747300 	cmnvs	r4, r0, lsl #6
 888:	61750074 	cmnvs	r5, r4, ror r0
 88c:	632e7472 	teqvs	lr, #1912602624	; 0x72000000
 890:	72617500 	rsbvc	r7, r1, #0, 10
 894:	6e695f74 	mcrvs	15, 3, r5, cr9, cr4, {3}
 898:	64007469 	strvs	r7, [r0], #-1129	; 0x469
 89c:	00617461 	rsbeq	r7, r1, r1, ror #8
 8a0:	61726373 	cmnvs	r2, r3, ror r3
 8a4:	00686374 	rsbeq	r6, r8, r4, ror r3
 8a8:	74726175 	ldrbtvc	r6, [r2], #-373	; 0x175
 8ac:	756c665f 	strbvc	r6, [ip, #-1631]!	; 0x65f
 8b0:	75006873 	strvc	r6, [r0, #-2163]	; 0x873
 8b4:	5f747261 	svcpl	0x00747261
 8b8:	63746567 	cmnvs	r4, #432013312	; 0x19c00000
 8bc:	75616200 	strbvc	r6, [r1, #-512]!	; 0x200
 8c0:	6e630064 	cdpvs	0, 6, cr0, cr3, cr4, {3}
 8c4:	75006c74 	strvc	r6, [r0, #-3188]	; 0xc74
 8c8:	5f747261 	svcpl	0x00747261
 8cc:	63747570 	cmnvs	r4, #112, 10	; 0x1c000000
 8d0:	72617500 	rsbvc	r7, r1, #0, 10
 8d4:	41550074 	cmpmi	r5, r4, ror r0
 8d8:	67005452 	smlsdvs	r0, r2, r4, r5
 8dc:	654c7465 	strbvs	r7, [ip, #-1125]	; 0x465
 8e0:	6874676e 	ldmdavs	r4!, {r1, r2, r3, r5, r6, r8, r9, sl, sp, lr}^
 8e4:	7a697300 	bvc	1a5d4ec <__bss_end__+0x1a5252c>
 8e8:	70797465 	rsbsvc	r7, r9, r5, ror #8
 8ec:	75620065 	strbvc	r0, [r2, #-101]!	; 0x65
 8f0:	506f5466 	rsbpl	r5, pc, r6, ror #8
 8f4:	746e6972 	strbtvc	r6, [lr], #-2418	; 0x972
 8f8:	6c756600 	ldclvs	6, cr6, [r5], #-0
 8fc:	7274536c 	rsbsvc	r5, r4, #108, 6	; 0xb0000001
 900:	50676e69 	rsbpl	r6, r7, r9, ror #28
 904:	69007274 	stmdbvs	r0, {r2, r4, r5, r6, r9, ip, sp, lr}
 908:	67654e73 			; <UNDEFINED> instruction: 0x67654e73
 90c:	00636544 	rsbeq	r6, r3, r4, asr #10
 910:	736e6f63 	cmnvc	lr, #396	; 0x18c
 914:	5f656c6f 	svcpl	0x00656c6f
 918:	6e697270 	mcrvs	2, 3, r7, cr9, cr0, {3}
 91c:	62006674 	andvs	r6, r0, #116, 12	; 0x7400000
 920:	006c6f6f 	rsbeq	r6, ip, pc, ror #30
 924:	6f746e69 	svcvs	0x00746e69
 928:	006e6962 	rsbeq	r6, lr, r2, ror #18
 92c:	74646977 	strbtvc	r6, [r4], #-2423	; 0x977
 930:	69620068 	stmdbvs	r2!, {r3, r5, r6}^
 934:	6174536e 	cmnvs	r4, lr, ror #6
 938:	6f507472 	svcvs	0x00507472
 93c:	75660073 	strbvc	r0, [r6, #-115]!	; 0x73
 940:	74536c6c 	ldrbvc	r6, [r3], #-3180	; 0xc6c
 944:	676e6972 			; <UNDEFINED> instruction: 0x676e6972
 948:	78656e00 	stmdavc	r5!, {r9, sl, fp, sp, lr}^
 94c:	61684374 	smcvs	33844	; 0x8434
 950:	6f660072 	svcvs	0x00660072
 954:	74616d72 	strbtvc	r6, [r1], #-3442	; 0xd72
 958:	746e6900 	strbtvc	r6, [lr], #-2304	; 0x900
 95c:	7361626f 	cmnvc	r1, #-268435450	; 0xf0000006
 960:	5f5f0065 	svcpl	0x005f0065
 964:	6c5f6176 	ldfvse	f6, [pc], {118}	; 0x76
 968:	00747369 	rsbseq	r7, r4, r9, ror #6
 96c:	69727473 	ldmdbvs	r2!, {r0, r1, r4, r5, r6, sl, ip, sp, lr}^
 970:	6f54676e 	svcvs	0x0054676e
 974:	6e697250 	mcrvs	2, 3, r7, cr9, cr0, {2}
 978:	6e730074 	mrcvs	0, 3, r0, cr3, cr4, {3}
 97c:	6e697270 	mcrvs	2, 3, r7, cr9, cr0, {3}
 980:	62006674 	andvs	r6, r0, #116, 12	; 0x7400000
 984:	69536675 	ldmdbvs	r3, {r0, r2, r4, r5, r6, r9, sl, sp, lr}^
 988:	7400657a 	strvc	r6, [r0], #-1402	; 0x57a
 98c:	42706d65 	rsbsmi	r6, r0, #6464	; 0x1940
 990:	68006675 	stmdavs	r0, {r0, r2, r4, r5, r6, r9, sl, sp, lr}
 994:	68437865 	stmdavs	r3, {r0, r2, r5, r6, fp, ip, sp, lr}^
 998:	00737261 	rsbseq	r7, r3, r1, ror #4
 99c:	50727563 	rsbspl	r7, r2, r3, ror #10
 9a0:	6600736f 	strvs	r7, [r0], -pc, ror #6
 9a4:	65736c61 	ldrbvs	r6, [r3, #-3169]!	; 0xc61
 9a8:	746e6900 	strbtvc	r6, [lr], #-2304	; 0x900
 9ac:	7865686f 	stmdavc	r5!, {r0, r1, r2, r3, r5, r6, fp, sp, lr}^
 9b0:	706e7300 	rsbvc	r7, lr, r0, lsl #6
 9b4:	746e6972 	strbtvc	r6, [lr], #-2418	; 0x972
 9b8:	70615f66 	rsbvc	r5, r1, r6, ror #30
 9bc:	78656800 	stmdavc	r5!, {fp, sp, lr}^
 9c0:	72617453 	rsbvc	r7, r1, #1392508928	; 0x53000000
 9c4:	736f5074 	cmnvc	pc, #116	; 0x74
 9c8:	615f5f00 	cmpvs	pc, r0, lsl #30
 9cc:	72740070 	rsbsvc	r0, r4, #112	; 0x70
 9d0:	63006575 	movwvs	r6, #1397	; 0x575
 9d4:	54726168 	ldrbtpl	r6, [r2], #-360	; 0x168
 9d8:	6972506f 	ldmdbvs	r2!, {r0, r1, r2, r3, r5, r6, ip, lr}^
 9dc:	6400746e 	strvs	r7, [r0], #-1134	; 0x46e
 9e0:	74536365 	ldrbvc	r6, [r3], #-869	; 0x365
 9e4:	50747261 	rsbspl	r7, r4, r1, ror #4
 9e8:	7000736f 	andvc	r7, r0, pc, ror #6
 9ec:	746e6972 	strbtvc	r6, [lr], #-2418	; 0x972
 9f0:	00632e66 	rsbeq	r2, r3, r6, ror #28
 9f4:	54746e69 	ldrbtpl	r6, [r4], #-3689	; 0xe69
 9f8:	6972506f 	ldmdbvs	r2!, {r0, r1, r2, r3, r5, r6, ip, lr}^
 9fc:	7400746e 	strvc	r7, [r0], #-1134	; 0x46e
 a00:	42706d65 	rsbsmi	r6, r0, #6464	; 0x1940
 a04:	74506675 	ldrbvc	r6, [r0], #-1653	; 0x675
 a08:	65720072 	ldrbvs	r0, [r2, #-114]!	; 0x72
 a0c:	72745376 	rsbsvc	r5, r4, #-671088639	; 0xd8000001
 a10:	675f5f00 	ldrbvs	r5, [pc, -r0, lsl #30]
 a14:	5f63756e 	svcpl	0x0063756e
 a18:	6c5f6176 	ldfvse	f6, [pc], {118}	; 0x76
 a1c:	00747369 	rsbseq	r7, r4, r9, ror #6
 a20:	73726966 	cmnvc	r2, #1671168	; 0x198000
 a24:	67694474 			; <UNDEFINED> instruction: 0x67694474
 a28:	72007469 	andvc	r7, r0, #1761607680	; 0x69000000
 a2c:	61567465 	cmpvs	r6, r5, ror #8
 a30:	7473006c 	ldrbtvc	r0, [r3], #-108	; 0x6c
 a34:	7a695372 	bvc	1a55804 <__bss_end__+0x1a4a844>
 a38:	6e690065 	cdpvs	0, 6, cr0, cr9, cr5, {3}
 a3c:	65646f74 	strbvs	r6, [r4, #-3956]!	; 0xf74
 a40:	6f740063 	svcvs	0x00740063
 a44:	4c6c6174 	stfmie	f6, [ip], #-464	; 0xfffffe30
 a48:	74676e65 	strbtvc	r6, [r7], #-3685	; 0xe65
 a4c:	75620068 	strbvc	r0, [r2, #-104]!	; 0x68
 a50:	736f5066 	cmnvc	pc, #102	; 0x66
 a54:	6d756e00 	ldclvs	14, cr6, [r5, #-0]
 a58:	7479625f 	ldrbtvc	r6, [r9], #-607	; 0x25f
 a5c:	5f007365 	svcpl	0x00007365
 a60:	6165615f 	cmnvs	r5, pc, asr r1
 a64:	755f6962 	ldrbvc	r6, [pc, #-2402]	; 10a <_start-0x7ef6>
 a68:	76696469 	strbtvc	r6, [r9], -r9, ror #8
 a6c:	72747300 	rsbsvc	r7, r4, #0, 6
 a70:	00706d63 	rsbseq	r6, r0, r3, ror #26
 a74:	746f7571 	strbtvc	r7, [pc], #-1393	; a7c <_start-0x7584>
 a78:	746e6569 	strbtvc	r6, [lr], #-1385	; 0x569
 a7c:	6d756e00 	ldclvs	14, cr6, [r5, #-0]
 a80:	74617265 	strbtvc	r7, [r1], #-613	; 0x265
 a84:	7300726f 	movwvc	r7, #623	; 0x26f
 a88:	6372756f 	cmnvs	r2, #465567744	; 0x1bc00000
 a8c:	79620065 	stmdbvc	r2!, {r0, r2, r5, r6}^
 a90:	5f736574 	svcpl	0x00736574
 a94:	69706f63 	ldmdbvs	r0!, {r0, r1, r5, r6, r8, r9, sl, fp, sp, lr}^
 a98:	75006465 	strvc	r6, [r0, #-1125]	; 0x465
 a9c:	736c6974 	cmnvc	ip, #116, 18	; 0x1d0000
 aa0:	6400632e 	strvs	r6, [r0], #-814	; 0x32e
 aa4:	69747365 	ldmdbvs	r4!, {r0, r2, r5, r6, r8, r9, ip, sp, lr}^
 aa8:	6974616e 	ldmdbvs	r4!, {r1, r2, r3, r5, r6, r8, sp, lr}^
 aac:	73006e6f 	movwvc	r6, #3695	; 0xe6f
 ab0:	00317274 	eorseq	r7, r1, r4, ror r2
 ab4:	32727473 	rsbscc	r7, r2, #1929379840	; 0x73000000
 ab8:	676d6900 	strbvs	r6, [sp, -r0, lsl #18]!
 abc:	00797063 	rsbseq	r7, r9, r3, rrx
 ac0:	6f6e6564 	svcvs	0x006e6564
 ac4:	616e696d 	cmnvs	lr, sp, ror #18
 ac8:	00726f74 	rsbseq	r6, r2, r4, ror pc
 acc:	63727473 	cmnvs	r2, #1929379840	; 0x73000000
 ad0:	70007970 	andvc	r7, r0, r0, ror r9
 ad4:	65666572 	strbvs	r6, [r6, #-1394]!	; 0x572
 ad8:	5f686374 	svcpl	0x00686374
 adc:	726f6261 	rsbvc	r6, pc, #268435462	; 0x10000006
 ae0:	65765f74 	ldrbvs	r5, [r6, #-3956]!	; 0xf74
 ae4:	726f7463 	rsbvc	r7, pc, #1660944384	; 0x63000000
 ae8:	73616600 	cmnvc	r1, #0, 12
 aec:	6e695f74 	mcrvs	15, 3, r5, cr9, cr4, {3}
 af0:	72726574 	rsbsvc	r6, r2, #116, 10	; 0x1d000000
 af4:	5f747075 	svcpl	0x00747075
 af8:	74636576 	strbtvc	r6, [r3], #-1398	; 0x576
 afc:	7500726f 	strvc	r7, [r0, #-623]	; 0x26f
 b00:	6665646e 	strbtvs	r6, [r5], -lr, ror #8
 b04:	64656e69 	strbtvs	r6, [r5], #-3689	; 0xe69
 b08:	736e695f 	cmnvc	lr, #1556480	; 0x17c000
 b0c:	63757274 	cmnvs	r5, #116, 4	; 0x40000007
 b10:	6e6f6974 	mcrvs	9, 3, r6, cr15, cr4, {3}
 b14:	6365765f 	cmnvs	r5, #99614720	; 0x5f00000
 b18:	00726f74 	rsbseq	r6, r2, r4, ror pc
 b1c:	74666f73 	strbtvc	r6, [r6], #-3955	; 0xf73
 b20:	65726177 	ldrbvs	r6, [r2, #-375]!	; 0x177
 b24:	746e695f 	strbtvc	r6, [lr], #-2399	; 0x95f
 b28:	75727265 	ldrbvc	r7, [r2, #-613]!	; 0x265
 b2c:	765f7470 			; <UNDEFINED> instruction: 0x765f7470
 b30:	6f746365 	svcvs	0x00746365
 b34:	61640072 	smcvs	16386	; 0x4002
 b38:	615f6174 	cmpvs	pc, r4, ror r1	; <UNPREDICTABLE>
 b3c:	74726f62 	ldrbtvc	r6, [r2], #-3938	; 0xf62
 b40:	6365765f 	cmnvs	r5, #99614720	; 0x5f00000
 b44:	00726f74 	rsbseq	r6, r2, r4, ror pc
 b48:	65736572 	ldrbvs	r6, [r3, #-1394]!	; 0x572
 b4c:	65765f74 	ldrbvs	r5, [r6, #-3956]!	; 0xf74
 b50:	726f7463 	rsbvc	r7, pc, #1660944384	; 0x63000000
 b54:	6e616800 	cdpvs	8, 6, cr6, cr1, cr0, {0}
 b58:	72656c64 	rsbvc	r6, r5, #100, 24	; 0x6400
 b5c:	00632e73 	rsbeq	r2, r3, r3, ror lr
 b60:	65526f74 	ldrbvs	r6, [r2, #-3956]	; 0xf74
 b64:	6e727574 	mrcvs	5, 3, r7, cr2, cr4, {3}
 b68:	69707300 	ldmdbvs	r0!, {r8, r9, ip, sp, lr}^
 b6c:	6172745f 	cmnvs	r2, pc, asr r4
 b70:	6566736e 	strbvs	r7, [r6, #-878]!	; 0x36e
 b74:	4d440072 	stclmi	0, cr0, [r4, #-456]	; 0xfffffe38
 b78:	004e4541 	subeq	r4, lr, r1, asr #10
 b7c:	5f697073 	svcpl	0x00697073
 b80:	666e6f63 	strbtvs	r6, [lr], -r3, ror #30
 b84:	745f6769 	ldrbvc	r6, [pc], #-1897	; b8c <_start-0x7474>
 b88:	4e454c00 	cdpmi	12, 4, cr4, cr5, cr0, {0}
 b8c:	4e4f4c5f 	mcrmi	12, 2, r4, cr15, cr15, {2}
 b90:	4d440047 	stclmi	0, cr0, [r4, #-284]	; 0xfffffee4
 b94:	454c5f41 	strbmi	r5, [ip, #-3905]	; 0xf41
 b98:	4554004e 	ldrbmi	r0, [r4, #-78]	; 0x4e
 b9c:	004e455f 	subeq	r4, lr, pc, asr r5
 ba0:	434f4c43 	movtmi	r4, #64579	; 0xfc43
 ba4:	45525f4b 	ldrbmi	r5, [r2, #-3915]	; 0xf4b
 ba8:	4c5f5453 	cfldrdmi	mvd5, [pc], {83}	; 0x53
 bac:	4300574f 	movwmi	r5, #1871	; 0x74f
 bb0:	004c4f50 	subeq	r4, ip, r0, asr pc
 bb4:	4f505343 	svcmi	0x00505343
 bb8:	7073004c 	rsbsvc	r0, r3, ip, asr #32
 bbc:	6f635f69 	svcvs	0x00635f69
 bc0:	6769666e 	strbvs	r6, [r9, -lr, ror #12]!
 bc4:	6b6c635f 	blvs	1b19948 <__bss_end__+0x1b0e988>
 bc8:	4e4f4400 	cdpmi	4, 4, cr4, cr15, cr0, {0}
 bcc:	50430045 	subpl	r0, r3, r5, asr #32
 bd0:	73004148 	movwvc	r4, #328	; 0x148
 bd4:	635f6970 	cmpvs	pc, #112, 18	; 0x1c0000
 bd8:	74736e6f 	ldrbtvc	r6, [r3], #-3695	; 0xe6f
 bdc:	73746e61 	cmnvc	r4, #1552	; 0x610
 be0:	4c435300 	mcrrmi	3, 0, r5, r3, cr0
 be4:	494d5f4b 	stmdbmi	sp, {r0, r1, r3, r6, r8, r9, sl, fp, ip, lr}^
 be8:	4e490044 	cdpmi	0, 4, cr0, cr9, cr4, {2}
 bec:	49005254 	stmdbmi	r0, {r2, r4, r6, r9, ip, lr}
 bf0:	5f54494e 	svcpl	0x0054494e
 bf4:	54004b4f 	strpl	r4, [r0], #-2895	; 0xb4f
 bf8:	51455244 	cmppl	r5, r4, asr #4
 bfc:	69707300 	ldmdbvs	r0!, {r8, r9, ip, sp, lr}^
 c00:	4300632e 	movwmi	r6, #814	; 0x32e
 c04:	4c4f5053 	mcrrmi	0, 5, r5, pc, cr3
 c08:	53430030 	movtpl	r0, #12336	; 0x3030
 c0c:	314c4f50 	cmpcc	ip, r0, asr pc
 c10:	69707300 	ldmdbvs	r0!, {r8, r9, ip, sp, lr}^
 c14:	6e6f635f 	mcrvs	3, 3, r6, cr15, cr15, {2}
 c18:	00676966 	rsbeq	r6, r7, r6, ror #18
 c1c:	69736e75 	ldmdbvs	r3!, {r0, r2, r4, r5, r6, r9, sl, fp, sp, lr}^
 c20:	64656e67 	strbtvs	r6, [r5], #-3687	; 0xe67
 c24:	61686320 	cmnvs	r8, r0, lsr #6
 c28:	4c430072 	mcrrmi	0, 7, r0, r3, cr2
 c2c:	5f4b434f 	svcpl	0x004b434f
 c30:	54534552 	ldrbpl	r4, [r3], #-1362	; 0x552
 c34:	4749485f 	smlsldmi	r4, r9, pc, r8	; <UNPREDICTABLE>
 c38:	70730048 	rsbsvc	r0, r3, r8, asr #32
 c3c:	6e695f69 	cdpvs	15, 6, cr5, cr9, cr9, {3}
 c40:	43007469 	movwmi	r7, #1129	; 0x469
 c44:	4c4f5053 	mcrrmi	0, 5, r5, pc, cr3
 c48:	4e490032 	mcrmi	0, 2, r0, cr9, cr2, {1}
 c4c:	66004454 			; <UNDEFINED> instruction: 0x66004454
 c50:	006f6669 	rsbeq	r6, pc, r9, ror #12
 c54:	4e4f4d4c 	cdpmi	13, 4, cr4, cr15, cr12, {2}
 c58:	4452004f 	ldrbmi	r0, [r2], #-79	; 0x4f
 c5c:	00514552 	subseq	r4, r1, r2, asr r5
 c60:	4b4c4353 	blmi	13119b4 <__bss_end__+0x13069f4>
 c64:	4745425f 	smlsldmi	r4, r5, pc, r2	; <UNPREDICTABLE>
 c68:	73004e49 	movwvc	r4, #3657	; 0xe49
 c6c:	635f6970 	cmpvs	pc, #112, 18	; 0x1c0000
 c70:	69666e6f 	stmdbvs	r6!, {r0, r1, r2, r3, r5, r6, r9, sl, fp, sp, lr}^
 c74:	73635f67 	cmnvc	r3, #412	; 0x19c
 c78:	69707300 	ldmdbvs	r0!, {r8, r9, ip, sp, lr}^
 c7c:	6e6f635f 	mcrvs	3, 3, r6, cr15, cr15, {2}
 c80:	5f676966 	svcpl	0x00676966
 c84:	686f746c 	stmdavs	pc!, {r2, r3, r5, r6, sl, ip, sp, lr}^	; <UNPREDICTABLE>
 c88:	61727400 	cmnvs	r2, r0, lsl #8
 c8c:	6566736e 	strbvs	r7, [r6, #-878]!	; 0x36e
 c90:	79625f72 	stmdbvc	r2!, {r1, r4, r5, r6, r8, r9, sl, fp, ip, lr}^
 c94:	00736574 	rsbseq	r6, r3, r4, ror r5
 c98:	5f697073 	svcpl	0x00697073
 c9c:	6f697067 	svcvs	0x00697067
 ca0:	696e695f 	stmdbvs	lr!, {r0, r1, r2, r3, r4, r6, r8, fp, sp, lr}^
 ca4:	44410074 	strbmi	r0, [r1], #-116	; 0x74
 ca8:	54005343 	strpl	r5, [r0], #-835	; 0x343
 cac:	494e4150 	stmdbmi	lr, {r4, r6, r8, lr}^
 cb0:	50520043 	subspl	r0, r2, r3, asr #32
 cb4:	43494e41 	movtmi	r4, #40513	; 0x9e41
 cb8:	53455200 	movtpl	r5, #20992	; 0x5200
 cbc:	45565245 	ldrbmi	r5, [r6, #-581]	; 0x245
 cc0:	4c430044 	mcrrmi	0, 4, r0, r3, cr4
 cc4:	00524145 	subseq	r4, r2, r5, asr #2
 cc8:	5f697073 	svcpl	0x00697073
 ccc:	666e6f63 	strbtvs	r6, [lr], -r3, ror #30
 cd0:	645f6769 	ldrbvs	r6, [pc], #-1897	; cd8 <_start-0x7328>
 cd4:	70730063 	rsbsvc	r0, r3, r3, rrx
 cd8:	6f635f69 	svcvs	0x00635f69
 cdc:	6769666e 	strbvs	r6, [r9, -lr, ror #12]!
 ce0:	656c645f 	strbvs	r6, [ip, #-1119]!	; 0x45f
 ce4:	4443006e 	strbmi	r0, [r3], #-110	; 0x6e
 ce8:	72005649 	andvc	r5, r0, #76546048	; 0x4900000
 cec:	6f696461 	svcvs	0x00696461
 cf0:	696e695f 	stmdbvs	lr!, {r0, r1, r2, r3, r4, r6, r8, fp, sp, lr}^
 cf4:	68630074 	stmdavs	r3!, {r2, r4, r5, r6}^
 cf8:	5f6b6365 	svcpl	0x006b6365
 cfc:	69737372 	ldmdbvs	r3!, {r1, r4, r5, r6, r8, r9, ip, sp, lr}^
 d00:	746f6e00 	strbtvc	r6, [pc], #-3584	; d08 <_start-0x72f8>
 d04:	6e69616d 	powvsez	f6, f1, #5.0
 d08:	74656e00 	strbtvc	r6, [r5], #-3584	; 0xe00
 d0c:	6b726f77 	blvs	1c9caf0 <__bss_end__+0x1c91b30>
 d10:	7300632e 	movwvc	r6, #814	; 0x32e
 d14:	74726174 	ldrbtvc	r6, [r2], #-372	; 0x174
 d18:	6d69745f 	cfstrdvs	mvd7, [r9, #-380]!	; 0xfffffe84
 d1c:	65720065 	ldrbvs	r0, [r2, #-101]!	; 0x65
 d20:	76696563 	strbtvc	r6, [r9], -r3, ror #10
 d24:	72740065 	rsbsvc	r0, r4, #101	; 0x65
 d28:	6d736e61 	ldclvs	14, cr6, [r3, #-388]!	; 0xfffffe7c
 d2c:	Address 0x0000000000000d2c is out of bounds.


Disassembly of section .debug_frame:

00000000 <.debug_frame>:
   0:	0000000c 	andeq	r0, r0, ip
   4:	ffffffff 			; <UNDEFINED> instruction: 0xffffffff
   8:	7c020001 	stcvc	0, cr0, [r2], {1}
   c:	000d0c0e 	andeq	r0, sp, lr, lsl #24
  10:	00000018 	andeq	r0, r0, r8, lsl r0
  14:	00000000 	andeq	r0, r0, r0
  18:	00008068 	andeq	r8, r0, r8, rrx
  1c:	000000b8 	strheq	r0, [r0], -r8
  20:	8b080e42 	blhi	203930 <__bss_end__+0x1f8970>
  24:	42018e02 	andmi	r8, r1, #2, 28
  28:	00040b0c 	andeq	r0, r4, ip, lsl #22
  2c:	0000000c 	andeq	r0, r0, ip
  30:	ffffffff 			; <UNDEFINED> instruction: 0xffffffff
  34:	7c020001 	stcvc	0, cr0, [r2], {1}
  38:	000d0c0e 	andeq	r0, sp, lr, lsl #24
  3c:	00000018 	andeq	r0, r0, r8, lsl r0
  40:	0000002c 	andeq	r0, r0, ip, lsr #32
  44:	0000814c 	andeq	r8, r0, ip, asr #2
  48:	0000005c 	andeq	r0, r0, ip, asr r0
  4c:	8b080e42 	blhi	20395c <__bss_end__+0x1f899c>
  50:	42018e02 	andmi	r8, r1, #2, 28
  54:	00040b0c 	andeq	r0, r4, ip, lsl #22
  58:	00000018 	andeq	r0, r0, r8, lsl r0
  5c:	0000002c 	andeq	r0, r0, ip, lsr #32
  60:	000081a8 	andeq	r8, r0, r8, lsr #3
  64:	00000034 	andeq	r0, r0, r4, lsr r0
  68:	8b080e42 	blhi	203978 <__bss_end__+0x1f89b8>
  6c:	42018e02 	andmi	r8, r1, #2, 28
  70:	00040b0c 	andeq	r0, r4, ip, lsl #22
  74:	00000018 	andeq	r0, r0, r8, lsl r0
  78:	0000002c 	andeq	r0, r0, ip, lsr #32
  7c:	000081dc 	ldrdeq	r8, [r0], -ip
  80:	00000034 	andeq	r0, r0, r4, lsr r0
  84:	8b080e42 	blhi	203994 <__bss_end__+0x1f89d4>
  88:	42018e02 	andmi	r8, r1, #2, 28
  8c:	00040b0c 	andeq	r0, r4, ip, lsl #22
  90:	00000014 	andeq	r0, r0, r4, lsl r0
  94:	0000002c 	andeq	r0, r0, ip, lsr #32
  98:	00008210 	andeq	r8, r0, r0, lsl r2
  9c:	00000024 	andeq	r0, r0, r4, lsr #32
  a0:	8b040e42 	blhi	1039b0 <__bss_end__+0xf89f0>
  a4:	0b0d4201 	bleq	3508b0 <__bss_end__+0x3458f0>
  a8:	00000018 	andeq	r0, r0, r8, lsl r0
  ac:	0000002c 	andeq	r0, r0, ip, lsr #32
  b0:	00008234 	andeq	r8, r0, r4, lsr r2
  b4:	00000040 	andeq	r0, r0, r0, asr #32
  b8:	8b080e42 	blhi	2039c8 <__bss_end__+0x1f8a08>
  bc:	42018e02 	andmi	r8, r1, #2, 28
  c0:	00040b0c 	andeq	r0, r4, ip, lsl #22
  c4:	0000000c 	andeq	r0, r0, ip
  c8:	ffffffff 			; <UNDEFINED> instruction: 0xffffffff
  cc:	7c020001 	stcvc	0, cr0, [r2], {1}
  d0:	000d0c0e 	andeq	r0, sp, lr, lsl #24
  d4:	00000014 	andeq	r0, r0, r4, lsl r0
  d8:	000000c4 	andeq	r0, r0, r4, asr #1
  dc:	00008274 	andeq	r8, r0, r4, ror r2
  e0:	0000010c 	andeq	r0, r0, ip, lsl #2
  e4:	8b040e42 	blhi	1039f4 <__bss_end__+0xf8a34>
  e8:	0b0d4201 	bleq	3508f4 <__bss_end__+0x345934>
  ec:	00000014 	andeq	r0, r0, r4, lsl r0
  f0:	000000c4 	andeq	r0, r0, r4, asr #1
  f4:	00008380 	andeq	r8, r0, r0, lsl #7
  f8:	000000a4 	andeq	r0, r0, r4, lsr #1
  fc:	8b040e42 	blhi	103a0c <__bss_end__+0xf8a4c>
 100:	0b0d4201 	bleq	35090c <__bss_end__+0x34594c>
 104:	00000014 	andeq	r0, r0, r4, lsl r0
 108:	000000c4 	andeq	r0, r0, r4, asr #1
 10c:	00008424 	andeq	r8, r0, r4, lsr #8
 110:	000000ac 	andeq	r0, r0, ip, lsr #1
 114:	8b040e42 	blhi	103a24 <__bss_end__+0xf8a64>
 118:	0b0d4201 	bleq	350924 <__bss_end__+0x345964>
 11c:	00000014 	andeq	r0, r0, r4, lsl r0
 120:	000000c4 	andeq	r0, r0, r4, asr #1
 124:	000084d0 	ldrdeq	r8, [r0], -r0
 128:	0000005c 	andeq	r0, r0, ip, asr r0
 12c:	8b040e42 	blhi	103a3c <__bss_end__+0xf8a7c>
 130:	0b0d4201 	bleq	35093c <__bss_end__+0x34597c>
 134:	00000014 	andeq	r0, r0, r4, lsl r0
 138:	000000c4 	andeq	r0, r0, r4, asr #1
 13c:	0000852c 	andeq	r8, r0, ip, lsr #10
 140:	00000040 	andeq	r0, r0, r0, asr #32
 144:	8b040e42 	blhi	103a54 <__bss_end__+0xf8a94>
 148:	0b0d4201 	bleq	350954 <__bss_end__+0x345994>
 14c:	00000014 	andeq	r0, r0, r4, lsl r0
 150:	000000c4 	andeq	r0, r0, r4, asr #1
 154:	0000856c 	andeq	r8, r0, ip, ror #10
 158:	00000038 	andeq	r0, r0, r8, lsr r0
 15c:	8b040e42 	blhi	103a6c <__bss_end__+0xf8aac>
 160:	0b0d4201 	bleq	35096c <__bss_end__+0x3459ac>
 164:	00000018 	andeq	r0, r0, r8, lsl r0
 168:	000000c4 	andeq	r0, r0, r4, asr #1
 16c:	000085a4 	andeq	r8, r0, r4, lsr #11
 170:	0000002c 	andeq	r0, r0, ip, lsr #32
 174:	8b080e42 	blhi	203a84 <__bss_end__+0x1f8ac4>
 178:	42018e02 	andmi	r8, r1, #2, 28
 17c:	00040b0c 	andeq	r0, r4, ip, lsl #22
 180:	00000014 	andeq	r0, r0, r4, lsl r0
 184:	000000c4 	andeq	r0, r0, r4, asr #1
 188:	000085d0 	ldrdeq	r8, [r0], -r0
 18c:	00000040 	andeq	r0, r0, r0, asr #32
 190:	8b040e42 	blhi	103aa0 <__bss_end__+0xf8ae0>
 194:	0b0d4201 	bleq	3509a0 <__bss_end__+0x3459e0>
 198:	00000018 	andeq	r0, r0, r8, lsl r0
 19c:	000000c4 	andeq	r0, r0, r4, asr #1
 1a0:	00008610 	andeq	r8, r0, r0, lsl r6
 1a4:	0000002c 	andeq	r0, r0, ip, lsr #32
 1a8:	8b080e42 	blhi	203ab8 <__bss_end__+0x1f8af8>
 1ac:	42018e02 	andmi	r8, r1, #2, 28
 1b0:	00040b0c 	andeq	r0, r4, ip, lsl #22
 1b4:	00000014 	andeq	r0, r0, r4, lsl r0
 1b8:	000000c4 	andeq	r0, r0, r4, asr #1
 1bc:	0000863c 	andeq	r8, r0, ip, lsr r6
 1c0:	00000040 	andeq	r0, r0, r0, asr #32
 1c4:	8b040e42 	blhi	103ad4 <__bss_end__+0xf8b14>
 1c8:	0b0d4201 	bleq	3509d4 <__bss_end__+0x345a14>
 1cc:	00000018 	andeq	r0, r0, r8, lsl r0
 1d0:	000000c4 	andeq	r0, r0, r4, asr #1
 1d4:	0000867c 	andeq	r8, r0, ip, ror r6
 1d8:	0000002c 	andeq	r0, r0, ip, lsr #32
 1dc:	8b080e42 	blhi	203aec <__bss_end__+0x1f8b2c>
 1e0:	42018e02 	andmi	r8, r1, #2, 28
 1e4:	00040b0c 	andeq	r0, r4, ip, lsl #22
 1e8:	00000014 	andeq	r0, r0, r4, lsl r0
 1ec:	000000c4 	andeq	r0, r0, r4, asr #1
 1f0:	000086a8 	andeq	r8, r0, r8, lsr #13
 1f4:	00000040 	andeq	r0, r0, r0, asr #32
 1f8:	8b040e42 	blhi	103b08 <__bss_end__+0xf8b48>
 1fc:	0b0d4201 	bleq	350a08 <__bss_end__+0x345a48>
 200:	00000018 	andeq	r0, r0, r8, lsl r0
 204:	000000c4 	andeq	r0, r0, r4, asr #1
 208:	000086e8 	andeq	r8, r0, r8, ror #13
 20c:	0000002c 	andeq	r0, r0, ip, lsr #32
 210:	8b080e42 	blhi	203b20 <__bss_end__+0x1f8b60>
 214:	42018e02 	andmi	r8, r1, #2, 28
 218:	00040b0c 	andeq	r0, r4, ip, lsl #22
 21c:	00000014 	andeq	r0, r0, r4, lsl r0
 220:	000000c4 	andeq	r0, r0, r4, asr #1
 224:	00008714 	andeq	r8, r0, r4, lsl r7
 228:	00000040 	andeq	r0, r0, r0, asr #32
 22c:	8b040e42 	blhi	103b3c <__bss_end__+0xf8b7c>
 230:	0b0d4201 	bleq	350a3c <__bss_end__+0x345a7c>
 234:	00000018 	andeq	r0, r0, r8, lsl r0
 238:	000000c4 	andeq	r0, r0, r4, asr #1
 23c:	00008754 	andeq	r8, r0, r4, asr r7
 240:	0000002c 	andeq	r0, r0, ip, lsr #32
 244:	8b080e42 	blhi	203b54 <__bss_end__+0x1f8b94>
 248:	42018e02 	andmi	r8, r1, #2, 28
 24c:	00040b0c 	andeq	r0, r4, ip, lsl #22
 250:	00000014 	andeq	r0, r0, r4, lsl r0
 254:	000000c4 	andeq	r0, r0, r4, asr #1
 258:	00008780 	andeq	r8, r0, r0, lsl #15
 25c:	00000040 	andeq	r0, r0, r0, asr #32
 260:	8b040e42 	blhi	103b70 <__bss_end__+0xf8bb0>
 264:	0b0d4201 	bleq	350a70 <__bss_end__+0x345ab0>
 268:	00000018 	andeq	r0, r0, r8, lsl r0
 26c:	000000c4 	andeq	r0, r0, r4, asr #1
 270:	000087c0 	andeq	r8, r0, r0, asr #15
 274:	0000002c 	andeq	r0, r0, ip, lsr #32
 278:	8b080e42 	blhi	203b88 <__bss_end__+0x1f8bc8>
 27c:	42018e02 	andmi	r8, r1, #2, 28
 280:	00040b0c 	andeq	r0, r4, ip, lsl #22
 284:	00000018 	andeq	r0, r0, r8, lsl r0
 288:	000000c4 	andeq	r0, r0, r4, asr #1
 28c:	000087ec 	andeq	r8, r0, ip, ror #15
 290:	00000018 	andeq	r0, r0, r8, lsl r0
 294:	8b080e42 	blhi	203ba4 <__bss_end__+0x1f8be4>
 298:	42018e02 	andmi	r8, r1, #2, 28
 29c:	00040b0c 	andeq	r0, r4, ip, lsl #22
 2a0:	00000014 	andeq	r0, r0, r4, lsl r0
 2a4:	000000c4 	andeq	r0, r0, r4, asr #1
 2a8:	00008804 	andeq	r8, r0, r4, lsl #16
 2ac:	00000034 	andeq	r0, r0, r4, lsr r0
 2b0:	8b040e42 	blhi	103bc0 <__bss_end__+0xf8c00>
 2b4:	0b0d4201 	bleq	350ac0 <__bss_end__+0x345b00>
 2b8:	00000014 	andeq	r0, r0, r4, lsl r0
 2bc:	000000c4 	andeq	r0, r0, r4, asr #1
 2c0:	00008838 	andeq	r8, r0, r8, lsr r8
 2c4:	00000034 	andeq	r0, r0, r4, lsr r0
 2c8:	8b040e42 	blhi	103bd8 <__bss_end__+0xf8c18>
 2cc:	0b0d4201 	bleq	350ad8 <__bss_end__+0x345b18>
 2d0:	00000018 	andeq	r0, r0, r8, lsl r0
 2d4:	000000c4 	andeq	r0, r0, r4, asr #1
 2d8:	0000886c 	andeq	r8, r0, ip, ror #16
 2dc:	0000003c 	andeq	r0, r0, ip, lsr r0
 2e0:	8b080e42 	blhi	203bf0 <__bss_end__+0x1f8c30>
 2e4:	42018e02 	andmi	r8, r1, #2, 28
 2e8:	00040b0c 	andeq	r0, r4, ip, lsl #22
 2ec:	00000018 	andeq	r0, r0, r8, lsl r0
 2f0:	000000c4 	andeq	r0, r0, r4, asr #1
 2f4:	000088a8 	andeq	r8, r0, r8, lsr #17
 2f8:	0000003c 	andeq	r0, r0, ip, lsr r0
 2fc:	8b080e42 	blhi	203c0c <__bss_end__+0x1f8c4c>
 300:	42018e02 	andmi	r8, r1, #2, 28
 304:	00040b0c 	andeq	r0, r4, ip, lsl #22
 308:	00000018 	andeq	r0, r0, r8, lsl r0
 30c:	000000c4 	andeq	r0, r0, r4, asr #1
 310:	000088e4 	andeq	r8, r0, r4, ror #17
 314:	00000080 	andeq	r0, r0, r0, lsl #1
 318:	8b080e42 	blhi	203c28 <__bss_end__+0x1f8c68>
 31c:	42018e02 	andmi	r8, r1, #2, 28
 320:	00040b0c 	andeq	r0, r4, ip, lsl #22
 324:	00000018 	andeq	r0, r0, r8, lsl r0
 328:	000000c4 	andeq	r0, r0, r4, asr #1
 32c:	00008964 	andeq	r8, r0, r4, ror #18
 330:	00000030 	andeq	r0, r0, r0, lsr r0
 334:	8b080e42 	blhi	203c44 <__bss_end__+0x1f8c84>
 338:	42018e02 	andmi	r8, r1, #2, 28
 33c:	00040b0c 	andeq	r0, r4, ip, lsl #22
 340:	00000018 	andeq	r0, r0, r8, lsl r0
 344:	000000c4 	andeq	r0, r0, r4, asr #1
 348:	00008994 	muleq	r0, r4, r9
 34c:	00000030 	andeq	r0, r0, r0, lsr r0
 350:	8b080e42 	blhi	203c60 <__bss_end__+0x1f8ca0>
 354:	42018e02 	andmi	r8, r1, #2, 28
 358:	00040b0c 	andeq	r0, r4, ip, lsl #22
 35c:	00000018 	andeq	r0, r0, r8, lsl r0
 360:	000000c4 	andeq	r0, r0, r4, asr #1
 364:	000089c4 	andeq	r8, r0, r4, asr #19
 368:	000000d4 	ldrdeq	r0, [r0], -r4
 36c:	8b080e42 	blhi	203c7c <__bss_end__+0x1f8cbc>
 370:	42018e02 	andmi	r8, r1, #2, 28
 374:	00040b0c 	andeq	r0, r4, ip, lsl #22
 378:	00000018 	andeq	r0, r0, r8, lsl r0
 37c:	000000c4 	andeq	r0, r0, r4, asr #1
 380:	00008a98 	muleq	r0, r8, sl
 384:	00000064 	andeq	r0, r0, r4, rrx
 388:	8b080e42 	blhi	203c98 <__bss_end__+0x1f8cd8>
 38c:	42018e02 	andmi	r8, r1, #2, 28
 390:	00040b0c 	andeq	r0, r4, ip, lsl #22
 394:	00000018 	andeq	r0, r0, r8, lsl r0
 398:	000000c4 	andeq	r0, r0, r4, asr #1
 39c:	00008afc 	strdeq	r8, [r0], -ip
 3a0:	00000094 	muleq	r0, r4, r0
 3a4:	8b080e42 	blhi	203cb4 <__bss_end__+0x1f8cf4>
 3a8:	42018e02 	andmi	r8, r1, #2, 28
 3ac:	00040b0c 	andeq	r0, r4, ip, lsl #22
 3b0:	00000018 	andeq	r0, r0, r8, lsl r0
 3b4:	000000c4 	andeq	r0, r0, r4, asr #1
 3b8:	00008b90 	muleq	r0, r0, fp
 3bc:	0000006c 	andeq	r0, r0, ip, rrx
 3c0:	8b080e42 	blhi	203cd0 <__bss_end__+0x1f8d10>
 3c4:	42018e02 	andmi	r8, r1, #2, 28
 3c8:	00040b0c 	andeq	r0, r4, ip, lsl #22
 3cc:	00000018 	andeq	r0, r0, r8, lsl r0
 3d0:	000000c4 	andeq	r0, r0, r4, asr #1
 3d4:	00008bfc 	strdeq	r8, [r0], -ip
 3d8:	0000006c 	andeq	r0, r0, ip, rrx
 3dc:	8b080e42 	blhi	203cec <__bss_end__+0x1f8d2c>
 3e0:	42018e02 	andmi	r8, r1, #2, 28
 3e4:	00040b0c 	andeq	r0, r4, ip, lsl #22
 3e8:	00000018 	andeq	r0, r0, r8, lsl r0
 3ec:	000000c4 	andeq	r0, r0, r4, asr #1
 3f0:	00008c68 	andeq	r8, r0, r8, ror #24
 3f4:	00000060 	andeq	r0, r0, r0, rrx
 3f8:	8b080e42 	blhi	203d08 <__bss_end__+0x1f8d48>
 3fc:	42018e02 	andmi	r8, r1, #2, 28
 400:	00040b0c 	andeq	r0, r4, ip, lsl #22
 404:	00000018 	andeq	r0, r0, r8, lsl r0
 408:	000000c4 	andeq	r0, r0, r4, asr #1
 40c:	00008cc8 	andeq	r8, r0, r8, asr #25
 410:	00000074 	andeq	r0, r0, r4, ror r0
 414:	8b080e42 	blhi	203d24 <__bss_end__+0x1f8d64>
 418:	42018e02 	andmi	r8, r1, #2, 28
 41c:	00040b0c 	andeq	r0, r4, ip, lsl #22
 420:	00000014 	andeq	r0, r0, r4, lsl r0
 424:	000000c4 	andeq	r0, r0, r4, asr #1
 428:	00008d3c 	andeq	r8, r0, ip, lsr sp
 42c:	00000040 	andeq	r0, r0, r0, asr #32
 430:	8b040e42 	blhi	103d40 <__bss_end__+0xf8d80>
 434:	0b0d4201 	bleq	350c40 <__bss_end__+0x345c80>
 438:	00000014 	andeq	r0, r0, r4, lsl r0
 43c:	000000c4 	andeq	r0, r0, r4, asr #1
 440:	00008d7c 	andeq	r8, r0, ip, ror sp
 444:	00000028 	andeq	r0, r0, r8, lsr #32
 448:	8b040e42 	blhi	103d58 <__bss_end__+0xf8d98>
 44c:	0b0d4201 	bleq	350c58 <__bss_end__+0x345c98>
 450:	00000018 	andeq	r0, r0, r8, lsl r0
 454:	000000c4 	andeq	r0, r0, r4, asr #1
 458:	00008da4 	andeq	r8, r0, r4, lsr #27
 45c:	000000a8 	andeq	r0, r0, r8, lsr #1
 460:	8b080e42 	blhi	203d70 <__bss_end__+0x1f8db0>
 464:	42018e02 	andmi	r8, r1, #2, 28
 468:	00040b0c 	andeq	r0, r4, ip, lsl #22
 46c:	00000018 	andeq	r0, r0, r8, lsl r0
 470:	000000c4 	andeq	r0, r0, r4, asr #1
 474:	00008e4c 	andeq	r8, r0, ip, asr #28
 478:	00000028 	andeq	r0, r0, r8, lsr #32
 47c:	8b080e42 	blhi	203d8c <__bss_end__+0x1f8dcc>
 480:	42018e02 	andmi	r8, r1, #2, 28
 484:	00040b0c 	andeq	r0, r4, ip, lsl #22
 488:	00000018 	andeq	r0, r0, r8, lsl r0
 48c:	000000c4 	andeq	r0, r0, r4, asr #1
 490:	00008e74 	andeq	r8, r0, r4, ror lr
 494:	00000028 	andeq	r0, r0, r8, lsr #32
 498:	8b080e42 	blhi	203da8 <__bss_end__+0x1f8de8>
 49c:	42018e02 	andmi	r8, r1, #2, 28
 4a0:	00040b0c 	andeq	r0, r4, ip, lsl #22
 4a4:	0000000c 	andeq	r0, r0, ip
 4a8:	ffffffff 			; <UNDEFINED> instruction: 0xffffffff
 4ac:	7c020001 	stcvc	0, cr0, [r2], {1}
 4b0:	000d0c0e 	andeq	r0, sp, lr, lsl #24
 4b4:	00000018 	andeq	r0, r0, r8, lsl r0
 4b8:	000004a4 	andeq	r0, r0, r4, lsr #9
 4bc:	00008e9c 	muleq	r0, ip, lr
 4c0:	00000054 	andeq	r0, r0, r4, asr r0
 4c4:	8b080e42 	blhi	203dd4 <__bss_end__+0x1f8e14>
 4c8:	42018e02 	andmi	r8, r1, #2, 28
 4cc:	00040b0c 	andeq	r0, r4, ip, lsl #22
 4d0:	00000018 	andeq	r0, r0, r8, lsl r0
 4d4:	000004a4 	andeq	r0, r0, r4, lsr #9
 4d8:	00008ef0 	strdeq	r8, [r0], -r0
 4dc:	00000028 	andeq	r0, r0, r8, lsr #32
 4e0:	8b080e42 	blhi	203df0 <__bss_end__+0x1f8e30>
 4e4:	42018e02 	andmi	r8, r1, #2, 28
 4e8:	00040b0c 	andeq	r0, r4, ip, lsl #22
 4ec:	00000018 	andeq	r0, r0, r8, lsl r0
 4f0:	000004a4 	andeq	r0, r0, r4, lsr #9
 4f4:	00008f18 	andeq	r8, r0, r8, lsl pc
 4f8:	00000058 	andeq	r0, r0, r8, asr r0
 4fc:	8b080e42 	blhi	203e0c <__bss_end__+0x1f8e4c>
 500:	42018e02 	andmi	r8, r1, #2, 28
 504:	00040b0c 	andeq	r0, r4, ip, lsl #22
 508:	00000018 	andeq	r0, r0, r8, lsl r0
 50c:	000004a4 	andeq	r0, r0, r4, lsr #9
 510:	00008f70 	andeq	r8, r0, r0, ror pc
 514:	00000068 	andeq	r0, r0, r8, rrx
 518:	8b080e42 	blhi	203e28 <__bss_end__+0x1f8e68>
 51c:	42018e02 	andmi	r8, r1, #2, 28
 520:	00040b0c 	andeq	r0, r4, ip, lsl #22
 524:	00000018 	andeq	r0, r0, r8, lsl r0
 528:	000004a4 	andeq	r0, r0, r4, lsr #9
 52c:	00008fd8 	ldrdeq	r8, [r0], -r8	; <UNPREDICTABLE>
 530:	00000094 	muleq	r0, r4, r0
 534:	8b080e42 	blhi	203e44 <__bss_end__+0x1f8e84>
 538:	42018e02 	andmi	r8, r1, #2, 28
 53c:	00040b0c 	andeq	r0, r4, ip, lsl #22
 540:	0000000c 	andeq	r0, r0, ip
 544:	ffffffff 			; <UNDEFINED> instruction: 0xffffffff
 548:	7c020001 	stcvc	0, cr0, [r2], {1}
 54c:	000d0c0e 	andeq	r0, sp, lr, lsl #24
 550:	00000014 	andeq	r0, r0, r4, lsl r0
 554:	00000540 	andeq	r0, r0, r0, asr #10
 558:	0000906c 	andeq	r9, r0, ip, rrx
 55c:	00000044 	andeq	r0, r0, r4, asr #32
 560:	8b040e42 	blhi	103e70 <__bss_end__+0xf8eb0>
 564:	0b0d4201 	bleq	350d70 <__bss_end__+0x345db0>
 568:	00000014 	andeq	r0, r0, r4, lsl r0
 56c:	00000540 	andeq	r0, r0, r0, asr #10
 570:	000090b0 	strheq	r9, [r0], -r0
 574:	00000050 	andeq	r0, r0, r0, asr r0
 578:	8b040e42 	blhi	103e88 <__bss_end__+0xf8ec8>
 57c:	0b0d4201 	bleq	350d88 <__bss_end__+0x345dc8>
 580:	00000014 	andeq	r0, r0, r4, lsl r0
 584:	00000540 	andeq	r0, r0, r0, asr #10
 588:	00009100 	andeq	r9, r0, r0, lsl #2
 58c:	00000020 	andeq	r0, r0, r0, lsr #32
 590:	8b040e42 	blhi	103ea0 <__bss_end__+0xf8ee0>
 594:	0b0d4201 	bleq	350da0 <__bss_end__+0x345de0>
 598:	00000014 	andeq	r0, r0, r4, lsl r0
 59c:	00000540 	andeq	r0, r0, r0, asr #10
 5a0:	00009120 	andeq	r9, r0, r0, lsr #2
 5a4:	00000020 	andeq	r0, r0, r0, lsr #32
 5a8:	8b040e42 	blhi	103eb8 <__bss_end__+0xf8ef8>
 5ac:	0b0d4201 	bleq	350db8 <__bss_end__+0x345df8>
 5b0:	00000014 	andeq	r0, r0, r4, lsl r0
 5b4:	00000540 	andeq	r0, r0, r0, asr #10
 5b8:	00009140 	andeq	r9, r0, r0, asr #2
 5bc:	0000001c 	andeq	r0, r0, ip, lsl r0
 5c0:	8b040e42 	blhi	103ed0 <__bss_end__+0xf8f10>
 5c4:	0b0d4201 	bleq	350dd0 <__bss_end__+0x345e10>
 5c8:	00000014 	andeq	r0, r0, r4, lsl r0
 5cc:	00000540 	andeq	r0, r0, r0, asr #10
 5d0:	0000915c 	andeq	r9, r0, ip, asr r1
 5d4:	0000001c 	andeq	r0, r0, ip, lsl r0
 5d8:	8b040e42 	blhi	103ee8 <__bss_end__+0xf8f28>
 5dc:	0b0d4201 	bleq	350de8 <__bss_end__+0x345e28>
 5e0:	00000014 	andeq	r0, r0, r4, lsl r0
 5e4:	00000540 	andeq	r0, r0, r0, asr #10
 5e8:	00009178 	andeq	r9, r0, r8, ror r1
 5ec:	0000004c 	andeq	r0, r0, ip, asr #32
 5f0:	8b040e42 	blhi	103f00 <__bss_end__+0xf8f40>
 5f4:	0b0d4201 	bleq	350e00 <__bss_end__+0x345e40>
 5f8:	0000000c 	andeq	r0, r0, ip
 5fc:	ffffffff 			; <UNDEFINED> instruction: 0xffffffff
 600:	7c020001 	stcvc	0, cr0, [r2], {1}
 604:	000d0c0e 	andeq	r0, sp, lr, lsl #24
 608:	00000018 	andeq	r0, r0, r8, lsl r0
 60c:	000005f8 	strdeq	r0, [r0], -r8
 610:	000091c4 	andeq	r9, r0, r4, asr #3
 614:	000000d0 	ldrdeq	r0, [r0], -r0	; <UNPREDICTABLE>
 618:	8b080e42 	blhi	203f28 <__bss_end__+0x1f8f68>
 61c:	42018e02 	andmi	r8, r1, #2, 28
 620:	00040b0c 	andeq	r0, r4, ip, lsl #22
 624:	00000014 	andeq	r0, r0, r4, lsl r0
 628:	000005f8 	strdeq	r0, [r0], -r8
 62c:	00009294 	muleq	r0, r4, r2
 630:	0000004c 	andeq	r0, r0, ip, asr #32
 634:	8b040e42 	blhi	103f44 <__bss_end__+0xf8f84>
 638:	0b0d4201 	bleq	350e44 <__bss_end__+0x345e84>
 63c:	00000018 	andeq	r0, r0, r8, lsl r0
 640:	000005f8 	strdeq	r0, [r0], -r8
 644:	000092e0 	andeq	r9, r0, r0, ror #5
 648:	00000064 	andeq	r0, r0, r4, rrx
 64c:	8b080e42 	blhi	203f5c <__bss_end__+0x1f8f9c>
 650:	42018e02 	andmi	r8, r1, #2, 28
 654:	00040b0c 	andeq	r0, r4, ip, lsl #22
 658:	00000014 	andeq	r0, r0, r4, lsl r0
 65c:	000005f8 	strdeq	r0, [r0], -r8
 660:	00009344 	andeq	r9, r0, r4, asr #6
 664:	00000038 	andeq	r0, r0, r8, lsr r0
 668:	8b040e42 	blhi	103f78 <__bss_end__+0xf8fb8>
 66c:	0b0d4201 	bleq	350e78 <__bss_end__+0x345eb8>
 670:	0000000c 	andeq	r0, r0, ip
 674:	ffffffff 			; <UNDEFINED> instruction: 0xffffffff
 678:	7c020001 	stcvc	0, cr0, [r2], {1}
 67c:	000d0c0e 	andeq	r0, sp, lr, lsl #24
 680:	00000014 	andeq	r0, r0, r4, lsl r0
 684:	00000670 	andeq	r0, r0, r0, ror r6
 688:	0000937c 	andeq	r9, r0, ip, ror r3
 68c:	000003b0 			; <UNDEFINED> instruction: 0x000003b0
 690:	8b040e42 	blhi	103fa0 <__bss_end__+0xf8fe0>
 694:	0b0d4201 	bleq	350ea0 <__bss_end__+0x345ee0>
 698:	00000018 	andeq	r0, r0, r8, lsl r0
 69c:	00000670 	andeq	r0, r0, r0, ror r6
 6a0:	0000972c 	andeq	r9, r0, ip, lsr #14
 6a4:	0000004c 	andeq	r0, r0, ip, asr #32
 6a8:	8b080e42 	blhi	203fb8 <__bss_end__+0x1f8ff8>
 6ac:	42018e02 	andmi	r8, r1, #2, 28
 6b0:	00040b0c 	andeq	r0, r4, ip, lsl #22
 6b4:	00000018 	andeq	r0, r0, r8, lsl r0
 6b8:	00000670 	andeq	r0, r0, r0, ror r6
 6bc:	00009778 	andeq	r9, r0, r8, ror r7
 6c0:	0000004c 	andeq	r0, r0, ip, asr #32
 6c4:	8b080e42 	blhi	203fd4 <__bss_end__+0x1f9014>
 6c8:	42018e02 	andmi	r8, r1, #2, 28
 6cc:	00040b0c 	andeq	r0, r4, ip, lsl #22
 6d0:	00000018 	andeq	r0, r0, r8, lsl r0
 6d4:	00000670 	andeq	r0, r0, r0, ror r6
 6d8:	000097c4 	andeq	r9, r0, r4, asr #15
 6dc:	0000004c 	andeq	r0, r0, ip, asr #32
 6e0:	8b080e42 	blhi	203ff0 <__bss_end__+0x1f9030>
 6e4:	42018e02 	andmi	r8, r1, #2, 28
 6e8:	00040b0c 	andeq	r0, r4, ip, lsl #22
 6ec:	00000020 	andeq	r0, r0, r0, lsr #32
 6f0:	00000670 	andeq	r0, r0, r0, ror r6
 6f4:	00009810 	andeq	r9, r0, r0, lsl r8
 6f8:	00000050 	andeq	r0, r0, r0, asr r0
 6fc:	82080e42 	andhi	r0, r8, #1056	; 0x420
 700:	42018302 	andmi	r8, r1, #134217728	; 0x8000000
 704:	048b100e 	streq	r1, [fp], #14
 708:	0c42038e 	mcrreq	3, 8, r0, r2, cr14
 70c:	00000c0b 	andeq	r0, r0, fp, lsl #24
 710:	00000018 	andeq	r0, r0, r8, lsl r0
 714:	00000670 	andeq	r0, r0, r0, ror r6
 718:	00009860 	andeq	r9, r0, r0, ror #16
 71c:	0000030c 	andeq	r0, r0, ip, lsl #6
 720:	8b080e42 	blhi	204030 <__bss_end__+0x1f9070>
 724:	42018e02 	andmi	r8, r1, #2, 28
 728:	00040b0c 	andeq	r0, r4, ip, lsl #22
 72c:	00000024 	andeq	r0, r0, r4, lsr #32
 730:	00000670 	andeq	r0, r0, r0, ror r6
 734:	00009b6c 	andeq	r9, r0, ip, ror #22
 738:	000004a8 	andeq	r0, r0, r8, lsr #9
 73c:	841c0e42 	ldrhi	r0, [ip], #-3650	; 0xe42
 740:	86068507 	strhi	r8, [r6], -r7, lsl #10
 744:	88048705 	stmdahi	r4, {r0, r2, r8, r9, sl, pc}
 748:	8e028b03 	vmlahi.f64	d8, d2, d3
 74c:	0b0c4201 	bleq	310f58 <__bss_end__+0x305f98>
 750:	00000004 	andeq	r0, r0, r4
 754:	0000002c 	andeq	r0, r0, ip, lsr #32
 758:	00000670 	andeq	r0, r0, r0, ror r6
 75c:	0000a014 	andeq	sl, r0, r4, lsl r0
 760:	00000104 	andeq	r0, r0, r4, lsl #2
 764:	80100e42 	andshi	r0, r0, r2, asr #28
 768:	82038104 	andhi	r8, r3, #4, 2
 76c:	42018302 	andmi	r8, r1, #134217728	; 0x8000000
 770:	0b842c0e 	bleq	fe10b7b0 <__bss_end__+0xfe1007f0>
 774:	09860a85 	stmibeq	r6, {r0, r2, r7, r9, fp}
 778:	07880887 	streq	r0, [r8, r7, lsl #17]
 77c:	058e068b 	streq	r0, [lr, #1675]	; 0x68b
 780:	140b0c42 	strne	r0, [fp], #-3138	; 0xc42
 784:	0000002c 	andeq	r0, r0, ip, lsr #32
 788:	00000670 	andeq	r0, r0, r0, ror r6
 78c:	0000a118 	andeq	sl, r0, r8, lsl r1
 790:	000000cc 	andeq	r0, r0, ip, asr #1
 794:	80100e42 	andshi	r0, r0, r2, asr #28
 798:	82038104 	andhi	r8, r3, #4, 2
 79c:	42018302 	andmi	r8, r1, #134217728	; 0x8000000
 7a0:	0b842c0e 	bleq	fe10b7e0 <__bss_end__+0xfe100820>
 7a4:	09860a85 	stmibeq	r6, {r0, r2, r7, r9, fp}
 7a8:	07880887 	streq	r0, [r8, r7, lsl #17]
 7ac:	058e068b 	streq	r0, [lr, #1675]	; 0x68b
 7b0:	140b0c42 	strne	r0, [fp], #-3138	; 0xc42
 7b4:	0000000c 	andeq	r0, r0, ip
 7b8:	ffffffff 			; <UNDEFINED> instruction: 0xffffffff
 7bc:	7c020001 	stcvc	0, cr0, [r2], {1}
 7c0:	000d0c0e 	andeq	r0, sp, lr, lsl #24
 7c4:	00000014 	andeq	r0, r0, r4, lsl r0
 7c8:	000007b4 			; <UNDEFINED> instruction: 0x000007b4
 7cc:	0000a1e4 	andeq	sl, r0, r4, ror #3
 7d0:	00000060 	andeq	r0, r0, r0, rrx
 7d4:	8b040e42 	blhi	1040e4 <__bss_end__+0xf9124>
 7d8:	0b0d4201 	bleq	350fe4 <__bss_end__+0x346024>
 7dc:	00000014 	andeq	r0, r0, r4, lsl r0
 7e0:	000007b4 			; <UNDEFINED> instruction: 0x000007b4
 7e4:	0000a244 	andeq	sl, r0, r4, asr #4
 7e8:	000000b0 	strheq	r0, [r0], -r0	; <UNPREDICTABLE>
 7ec:	8b040e42 	blhi	1040fc <__bss_end__+0xf913c>
 7f0:	0b0d4201 	bleq	350ffc <__bss_end__+0x34603c>
 7f4:	00000014 	andeq	r0, r0, r4, lsl r0
 7f8:	000007b4 			; <UNDEFINED> instruction: 0x000007b4
 7fc:	0000a2f4 	strdeq	sl, [r0], -r4
 800:	00000070 	andeq	r0, r0, r0, ror r0
 804:	8b040e42 	blhi	104114 <__bss_end__+0xf9154>
 808:	0b0d4201 	bleq	351014 <__bss_end__+0x346054>
 80c:	00000014 	andeq	r0, r0, r4, lsl r0
 810:	000007b4 			; <UNDEFINED> instruction: 0x000007b4
 814:	0000a364 	andeq	sl, r0, r4, ror #6
 818:	0000007c 	andeq	r0, r0, ip, ror r0
 81c:	8b040e42 	blhi	10412c <__bss_end__+0xf916c>
 820:	0b0d4201 	bleq	35102c <__bss_end__+0x34606c>
 824:	0000000c 	andeq	r0, r0, ip
 828:	ffffffff 			; <UNDEFINED> instruction: 0xffffffff
 82c:	7c020001 	stcvc	0, cr0, [r2], {1}
 830:	000d0c0e 	andeq	r0, sp, lr, lsl #24
 834:	00000014 	andeq	r0, r0, r4, lsl r0
 838:	00000824 	andeq	r0, r0, r4, lsr #16
 83c:	0000a4d8 	ldrdeq	sl, [r0], -r8
 840:	0000001c 	andeq	r0, r0, ip, lsl r0
 844:	8b040e42 	blhi	104154 <__bss_end__+0xf9194>
 848:	0b0d4201 	bleq	351054 <__bss_end__+0x346094>
 84c:	00000014 	andeq	r0, r0, r4, lsl r0
 850:	00000824 	andeq	r0, r0, r4, lsr #16
 854:	0000a4f4 	strdeq	sl, [r0], -r4
 858:	0000001c 	andeq	r0, r0, ip, lsl r0
 85c:	8b040e42 	blhi	10416c <__bss_end__+0xf91ac>
 860:	0b0d4201 	bleq	35106c <__bss_end__+0x3460ac>
 864:	00000014 	andeq	r0, r0, r4, lsl r0
 868:	00000824 	andeq	r0, r0, r4, lsr #16
 86c:	0000a510 	andeq	sl, r0, r0, lsl r5
 870:	0000001c 	andeq	r0, r0, ip, lsl r0
 874:	8b040e42 	blhi	104184 <__bss_end__+0xf91c4>
 878:	0b0d4201 	bleq	351084 <__bss_end__+0x3460c4>
 87c:	00000014 	andeq	r0, r0, r4, lsl r0
 880:	00000824 	andeq	r0, r0, r4, lsr #16
 884:	0000a52c 	andeq	sl, r0, ip, lsr #10
 888:	0000001c 	andeq	r0, r0, ip, lsl r0
 88c:	8b040e42 	blhi	10419c <__bss_end__+0xf91dc>
 890:	0b0d4201 	bleq	35109c <__bss_end__+0x3460dc>
 894:	00000014 	andeq	r0, r0, r4, lsl r0
 898:	00000824 	andeq	r0, r0, r4, lsr #16
 89c:	0000a548 	andeq	sl, r0, r8, asr #10
 8a0:	0000001c 	andeq	r0, r0, ip, lsl r0
 8a4:	8b040e42 	blhi	1041b4 <__bss_end__+0xf91f4>
 8a8:	0b0d4201 	bleq	3510b4 <__bss_end__+0x3460f4>
 8ac:	00000014 	andeq	r0, r0, r4, lsl r0
 8b0:	00000824 	andeq	r0, r0, r4, lsr #16
 8b4:	0000a564 	andeq	sl, r0, r4, ror #10
 8b8:	0000001c 	andeq	r0, r0, ip, lsl r0
 8bc:	8b040e42 	blhi	1041cc <__bss_end__+0xf920c>
 8c0:	0b0d4201 	bleq	3510cc <__bss_end__+0x34610c>
 8c4:	00000014 	andeq	r0, r0, r4, lsl r0
 8c8:	00000824 	andeq	r0, r0, r4, lsr #16
 8cc:	0000a580 	andeq	sl, r0, r0, lsl #11
 8d0:	0000001c 	andeq	r0, r0, ip, lsl r0
 8d4:	8b040e42 	blhi	1041e4 <__bss_end__+0xf9224>
 8d8:	0b0d4201 	bleq	3510e4 <__bss_end__+0x346124>
 8dc:	0000000c 	andeq	r0, r0, ip
 8e0:	ffffffff 			; <UNDEFINED> instruction: 0xffffffff
 8e4:	7c020001 	stcvc	0, cr0, [r2], {1}
 8e8:	000d0c0e 	andeq	r0, sp, lr, lsl #24
 8ec:	00000018 	andeq	r0, r0, r8, lsl r0
 8f0:	000008dc 	ldrdeq	r0, [r0], -ip
 8f4:	0000a59c 	muleq	r0, ip, r5
 8f8:	00000050 	andeq	r0, r0, r0, asr r0
 8fc:	8b080e42 	blhi	20420c <__bss_end__+0x1f924c>
 900:	42018e02 	andmi	r8, r1, #2, 28
 904:	00040b0c 	andeq	r0, r4, ip, lsl #22
 908:	00000018 	andeq	r0, r0, r8, lsl r0
 90c:	000008dc 	ldrdeq	r0, [r0], -ip
 910:	0000a5ec 	andeq	sl, r0, ip, ror #11
 914:	00000314 	andeq	r0, r0, r4, lsl r3
 918:	8b080e42 	blhi	204228 <__bss_end__+0x1f9268>
 91c:	42018e02 	andmi	r8, r1, #2, 28
 920:	00040b0c 	andeq	r0, r4, ip, lsl #22
 924:	00000014 	andeq	r0, r0, r4, lsl r0
 928:	000008dc 	ldrdeq	r0, [r0], -ip
 92c:	0000a900 	andeq	sl, r0, r0, lsl #18
 930:	000000bc 	strheq	r0, [r0], -ip
 934:	8b040e42 	blhi	104244 <__bss_end__+0xf9284>
 938:	0b0d4201 	bleq	351144 <__bss_end__+0x346184>
 93c:	0000001c 	andeq	r0, r0, ip, lsl r0
 940:	000008dc 	ldrdeq	r0, [r0], -ip
 944:	0000a9bc 			; <UNDEFINED> instruction: 0x0000a9bc
 948:	00000134 	andeq	r0, r0, r4, lsr r1
 94c:	840c0e42 	strhi	r0, [ip], #-3650	; 0xe42
 950:	8e028b03 	vmlahi.f64	d8, d2, d3
 954:	0b0c4201 	bleq	311160 <__bss_end__+0x3061a0>
 958:	00000004 	andeq	r0, r0, r4
 95c:	0000000c 	andeq	r0, r0, ip
 960:	ffffffff 			; <UNDEFINED> instruction: 0xffffffff
 964:	7c020001 	stcvc	0, cr0, [r2], {1}
 968:	000d0c0e 	andeq	r0, sp, lr, lsl #24
 96c:	00000018 	andeq	r0, r0, r8, lsl r0
 970:	0000095c 	andeq	r0, r0, ip, asr r9
 974:	0000aaf0 	strdeq	sl, [r0], -r0
 978:	00000064 	andeq	r0, r0, r4, rrx
 97c:	8b080e42 	blhi	20428c <__bss_end__+0x1f92cc>
 980:	42018e02 	andmi	r8, r1, #2, 28
 984:	00040b0c 	andeq	r0, r4, ip, lsl #22
 988:	00000018 	andeq	r0, r0, r8, lsl r0
 98c:	0000095c 	andeq	r0, r0, ip, asr r9
 990:	0000ab54 	andeq	sl, r0, r4, asr fp
 994:	00000060 	andeq	r0, r0, r0, rrx
 998:	8b080e42 	blhi	2042a8 <__bss_end__+0x1f92e8>
 99c:	42018e02 	andmi	r8, r1, #2, 28
 9a0:	00040b0c 	andeq	r0, r4, ip, lsl #22
 9a4:	00000018 	andeq	r0, r0, r8, lsl r0
 9a8:	0000095c 	andeq	r0, r0, ip, asr r9
 9ac:	0000abb4 			; <UNDEFINED> instruction: 0x0000abb4
 9b0:	000001c4 	andeq	r0, r0, r4, asr #3
 9b4:	8b080e42 	blhi	2042c4 <__bss_end__+0x1f9304>
 9b8:	42018e02 	andmi	r8, r1, #2, 28
 9bc:	00040b0c 	andeq	r0, r4, ip, lsl #22
 9c0:	00000018 	andeq	r0, r0, r8, lsl r0
 9c4:	0000095c 	andeq	r0, r0, ip, asr r9
 9c8:	0000ad78 	andeq	sl, r0, r8, ror sp
 9cc:	000000d0 	ldrdeq	r0, [r0], -r0	; <UNPREDICTABLE>
 9d0:	8b080e42 	blhi	2042e0 <__bss_end__+0x1f9320>
 9d4:	42018e02 	andmi	r8, r1, #2, 28
 9d8:	00040b0c 	andeq	r0, r4, ip, lsl #22
 9dc:	00000018 	andeq	r0, r0, r8, lsl r0
 9e0:	0000095c 	andeq	r0, r0, ip, asr r9
 9e4:	0000ae48 	andeq	sl, r0, r8, asr #28
 9e8:	0000008c 	andeq	r0, r0, ip, lsl #1
 9ec:	8b080e42 	blhi	2042fc <__bss_end__+0x1f933c>
 9f0:	42018e02 	andmi	r8, r1, #2, 28
 9f4:	00040b0c 	andeq	r0, r4, ip, lsl #22
 9f8:	00000018 	andeq	r0, r0, r8, lsl r0
 9fc:	0000095c 	andeq	r0, r0, ip, asr r9
 a00:	0000aed4 	ldrdeq	sl, [r0], -r4
 a04:	00000050 	andeq	r0, r0, r0, asr r0
 a08:	8b080e42 	blhi	204318 <__bss_end__+0x1f9358>
 a0c:	42018e02 	andmi	r8, r1, #2, 28
 a10:	00040b0c 	andeq	r0, r4, ip, lsl #22
 a14:	00000018 	andeq	r0, r0, r8, lsl r0
 a18:	0000095c 	andeq	r0, r0, ip, asr r9
 a1c:	0000af24 	andeq	sl, r0, r4, lsr #30
 a20:	00000078 	andeq	r0, r0, r8, ror r0
 a24:	8b080e42 	blhi	204334 <__bss_end__+0x1f9374>
 a28:	42018e02 	andmi	r8, r1, #2, 28
 a2c:	00040b0c 	andeq	r0, r4, ip, lsl #22
